/tmp/tmpXXklCZGm.asm:
     1                          MODULE tetris_c
     2                          LINE 0, "../../../tetris/tetris.c"
../../../tetris/tetris.c:
                                
     1                          ;--------------------------------------------------------
     2                          ; File Created by SDCC : free open source ANSI-C Compiler
     3                          ; Version 4.2.0 #13081 (Linux)
     4                          ;--------------------------------------------------------
     5                          ; Processed by Z88DK
     6                          ;--------------------------------------------------------
     7                          
     8                          	EXTERN __divschar
     9                          	EXTERN __divschar_callee
    10                          	EXTERN __divsint
    11                          	EXTERN __divsint_callee
    12                          	EXTERN __divslong
    13                          	EXTERN __divslong_callee
    14                          	EXTERN __divslonglong
    15                          	EXTERN __divslonglong_callee
    16                          	EXTERN __divsuchar
    17                          	EXTERN __divsuchar_callee
    18                          	EXTERN __divuchar
    19                          	EXTERN __divuchar_callee
    20                          	EXTERN __divuint
    21                          	EXTERN __divuint_callee
    22                          	EXTERN __divulong
    23                          	EXTERN __divulong_callee
    24                          	EXTERN __divulonglong
    25                          	EXTERN __divulonglong_callee
    26                          	EXTERN __divuschar
    27                          	EXTERN __divuschar_callee
    28                          	EXTERN __modschar
    29                          	EXTERN __modschar_callee
    30                          	EXTERN __modsint
    31                          	EXTERN __modsint_callee
    32                          	EXTERN __modslong
    33                          	EXTERN __modslong_callee
    34                          	EXTERN __modslonglong
    35                          	EXTERN __modslonglong_callee
    36                          	EXTERN __modsuchar
    37                          	EXTERN __modsuchar_callee
    38                          	EXTERN __moduchar
    39                          	EXTERN __moduchar_callee
    40                          	EXTERN __moduint
    41                          	EXTERN __moduint_callee
    42                          	EXTERN __modulong
    43                          	EXTERN __modulong_callee
    44                          	EXTERN __modulonglong
    45                          	EXTERN __modulonglong_callee
    46                          	EXTERN __moduschar
    47                          	EXTERN __moduschar_callee
    48                          	EXTERN __mulint
    49                          	EXTERN __mulint_callee
    50                          	EXTERN __mullong
    51                          	EXTERN __mullong_callee
    52                          	EXTERN __mullonglong
    53                          	EXTERN __mullonglong_callee
    54                          	EXTERN __mulschar
    55                          	EXTERN __mulschar_callee
    56                          	EXTERN __mulsuchar
    57                          	EXTERN __mulsuchar_callee
    58                          	EXTERN __muluchar
    59                          	EXTERN __muluchar_callee
    60                          	EXTERN __muluschar
    61                          	EXTERN __muluschar_callee
    62                          	EXTERN __rlslonglong
    63                          	EXTERN __rlslonglong_callee
    64                          	EXTERN __rlulonglong
    65                          	EXTERN __rlulonglong_callee
    66                          	EXTERN __rrslonglong
    67                          	EXTERN __rrslonglong_callee
    68                          	EXTERN __rrulonglong
    69                          	EXTERN __rrulonglong_callee
    70                          	EXTERN ___mulsint2slong
    71                          	EXTERN ___mulsint2slong_callee
    72                          	EXTERN ___muluint2ulong
    73                          	EXTERN ___muluint2ulong_callee
    74                          	EXTERN ___sdcc_call_hl
    75                          	EXTERN ___sdcc_call_iy
    76                          	EXTERN ___sdcc_enter_ix
    77                          	EXTERN banked_call
    78                          	EXTERN _banked_ret
    79                          	EXTERN ___fs2schar
    80                          	EXTERN ___fs2schar_callee
    81                          	EXTERN ___fs2sint
    82                          	EXTERN ___fs2sint_callee
    83                          	EXTERN ___fs2slong
    84                          	EXTERN ___fs2slong_callee
    85                          	EXTERN ___fs2slonglong
    86                          	EXTERN ___fs2slonglong_callee
    87                          	EXTERN ___fs2uchar
    88                          	EXTERN ___fs2uchar_callee
    89                          	EXTERN ___fs2uint
    90                          	EXTERN ___fs2uint_callee
    91                          	EXTERN ___fs2ulong
    92                          	EXTERN ___fs2ulong_callee
    93                          	EXTERN ___fs2ulonglong
    94                          	EXTERN ___fs2ulonglong_callee
    95                          	EXTERN ___fsadd
    96                          	EXTERN ___fsadd_callee
    97                          	EXTERN ___fsdiv
    98                          	EXTERN ___fsdiv_callee
    99                          	EXTERN ___fseq
   100                          	EXTERN ___fseq_callee
   101                          	EXTERN ___fsgt
   102                          	EXTERN ___fsgt_callee
   103                          	EXTERN ___fslt
   104                          	EXTERN ___fslt_callee
   105                          	EXTERN ___fsmul
   106                          	EXTERN ___fsmul_callee
   107                          	EXTERN ___fsneq
   108                          	EXTERN ___fsneq_callee
   109                          	EXTERN ___fssub
   110                          	EXTERN ___fssub_callee
   111                          	EXTERN ___schar2fs
   112                          	EXTERN ___schar2fs_callee
   113                          	EXTERN ___sint2fs
   114                          	EXTERN ___sint2fs_callee
   115                          	EXTERN ___slong2fs
   116                          	EXTERN ___slong2fs_callee
   117                          	EXTERN ___slonglong2fs
   118                          	EXTERN ___slonglong2fs_callee
   119                          	EXTERN ___uchar2fs
   120                          	EXTERN ___uchar2fs_callee
   121                          	EXTERN ___uint2fs
   122                          	EXTERN ___uint2fs_callee
   123                          	EXTERN ___ulong2fs
   124                          	EXTERN ___ulong2fs_callee
   125                          	EXTERN ___ulonglong2fs
   126                          	EXTERN ___ulonglong2fs_callee
   127                          	EXTERN ____sdcc_2_copy_src_mhl_dst_deix
   128                          	EXTERN ____sdcc_2_copy_src_mhl_dst_bcix
   129                          	EXTERN ____sdcc_4_copy_src_mhl_dst_deix
   130                          	EXTERN ____sdcc_4_copy_src_mhl_dst_bcix
   131                          	EXTERN ____sdcc_4_copy_src_mhl_dst_mbc
   132                          	EXTERN ____sdcc_4_ldi_nosave_bc
   133                          	EXTERN ____sdcc_4_ldi_save_bc
   134                          	EXTERN ____sdcc_4_push_hlix
   135                          	EXTERN ____sdcc_4_push_mhl
   136                          	EXTERN ____sdcc_lib_setmem_hl
   137                          	EXTERN ____sdcc_ll_add_de_bc_hl
   138                          	EXTERN ____sdcc_ll_add_de_bc_hlix
   139                          	EXTERN ____sdcc_ll_add_de_hlix_bc
   140                          	EXTERN ____sdcc_ll_add_de_hlix_bcix
   141                          	EXTERN ____sdcc_ll_add_deix_bc_hl
   142                          	EXTERN ____sdcc_ll_add_deix_hlix
   143                          	EXTERN ____sdcc_ll_add_hlix_bc_deix
   144                          	EXTERN ____sdcc_ll_add_hlix_deix_bc
   145                          	EXTERN ____sdcc_ll_add_hlix_deix_bcix
   146                          	EXTERN ____sdcc_ll_asr_hlix_a
   147                          	EXTERN ____sdcc_ll_asr_mbc_a
   148                          	EXTERN ____sdcc_ll_copy_src_de_dst_hlix
   149                          	EXTERN ____sdcc_ll_copy_src_de_dst_hlsp
   150                          	EXTERN ____sdcc_ll_copy_src_deix_dst_hl
   151                          	EXTERN ____sdcc_ll_copy_src_deix_dst_hlix
   152                          	EXTERN ____sdcc_ll_copy_src_deixm_dst_hlsp
   153                          	EXTERN ____sdcc_ll_copy_src_desp_dst_hlsp
   154                          	EXTERN ____sdcc_ll_copy_src_hl_dst_de
   155                          	EXTERN ____sdcc_ll_copy_src_hlsp_dst_de
   156                          	EXTERN ____sdcc_ll_copy_src_hlsp_dst_deixm
   157                          	EXTERN ____sdcc_ll_lsl_hlix_a
   158                          	EXTERN ____sdcc_ll_lsl_mbc_a
   159                          	EXTERN ____sdcc_ll_lsr_hlix_a
   160                          	EXTERN ____sdcc_ll_lsr_mbc_a
   161                          	EXTERN ____sdcc_ll_push_hlix
   162                          	EXTERN ____sdcc_ll_push_mhl
   163                          	EXTERN ____sdcc_ll_sub_de_bc_hl
   164                          	EXTERN ____sdcc_ll_sub_de_bc_hlix
   165                          	EXTERN ____sdcc_ll_sub_de_hlix_bc
   166                          	EXTERN ____sdcc_ll_sub_de_hlix_bcix
   167                          	EXTERN ____sdcc_ll_sub_deix_bc_hl
   168                          	EXTERN ____sdcc_ll_sub_deix_hlix
   169                          	EXTERN ____sdcc_ll_sub_hlix_bc_deix
   170                          	EXTERN ____sdcc_ll_sub_hlix_deix_bc
   171                          	EXTERN ____sdcc_ll_sub_hlix_deix_bcix
   172                          	EXTERN ____sdcc_load_debc_deix
   173                          	EXTERN ____sdcc_load_dehl_deix
   174                          	EXTERN ____sdcc_load_debc_mhl
   175                          	EXTERN ____sdcc_load_hlde_mhl
   176                          	EXTERN ____sdcc_store_dehl_bcix
   177                          	EXTERN ____sdcc_store_debc_hlix
   178                          	EXTERN ____sdcc_store_debc_mhl
   179                          	EXTERN ____sdcc_cpu_pop_ei
   180                          	EXTERN ____sdcc_cpu_pop_ei_jp
   181                          	EXTERN ____sdcc_cpu_push_di
   182                          	EXTERN ____sdcc_outi
   183                          	EXTERN ____sdcc_outi_128
   184                          	EXTERN ____sdcc_outi_256
   185                          	EXTERN ____sdcc_ldi
   186                          	EXTERN ____sdcc_ldi_128
   187                          	EXTERN ____sdcc_ldi_256
   188                          	EXTERN ____sdcc_4_copy_srcd_hlix_dst_deix
   189                          	EXTERN ____sdcc_4_and_src_mbc_mhl_dst_deix
   190                          	EXTERN ____sdcc_4_or_src_mbc_mhl_dst_deix
   191                          	EXTERN ____sdcc_4_xor_src_mbc_mhl_dst_deix
   192                          	EXTERN ____sdcc_4_or_src_dehl_dst_bcix
   193                          	EXTERN ____sdcc_4_xor_src_dehl_dst_bcix
   194                          	EXTERN ____sdcc_4_and_src_dehl_dst_bcix
   195                          	EXTERN ____sdcc_4_xor_src_mbc_mhl_dst_debc
   196                          	EXTERN ____sdcc_4_or_src_mbc_mhl_dst_debc
   197                          	EXTERN ____sdcc_4_and_src_mbc_mhl_dst_debc
   198                          	EXTERN ____sdcc_4_cpl_src_mhl_dst_debc
   199                          	EXTERN ____sdcc_4_xor_src_debc_mhl_dst_debc
   200                          	EXTERN ____sdcc_4_or_src_debc_mhl_dst_debc
   201                          	EXTERN ____sdcc_4_and_src_debc_mhl_dst_debc
   202                          	EXTERN ____sdcc_4_and_src_debc_hlix_dst_debc
   203                          	EXTERN ____sdcc_4_or_src_debc_hlix_dst_debc
   204                          	EXTERN ____sdcc_4_xor_src_debc_hlix_dst_debc
   205                          
   206                          ;--------------------------------------------------------
   207                          ; Public variables in this module
   208                          ;--------------------------------------------------------
   209                          	GLOBAL _main
   210                          	GLOBAL _menu
   211                          	GLOBAL _play
   212                          	GLOBAL _new_block
   213                          	GLOBAL _checkCompletedLines
   214                          	GLOBAL _clearLinesAndDropDown
   215                          	GLOBAL _clearPlayArea
   216                          	GLOBAL _isSpaceFree
   217                          	GLOBAL _clearTet
   218                          	GLOBAL _displayTet
   219                          	GLOBAL _setupMap
   220                          	GLOBAL _initDisplay
   221                          	GLOBAL _vdp_refreshViewPort
   222                          	GLOBAL _vdp_initG1Mode
   223                          	GLOBAL _vdp_disableVDPReadyInt
   224                          	GLOBAL _vdp_enableVDPReadyInt
   225                          	GLOBAL _isCloudCPM
   226                          	GLOBAL _tets
   227                          	GLOBAL _used_blocks
   228                          	GLOBAL _block_count
   229                          	GLOBAL __vdpInterruptEnabled
   230                          	GLOBAL __vdpReg1Val
   231                          	GLOBAL _vdp_cursor
   232                          	GLOBAL __joyStatus
   233                          	GLOBAL __lastKeyboardIntVal
   234                          	GLOBAL __kbdBufferWritePos
   235                          	GLOBAL __kbdBufferReadPos
   236                          	GLOBAL __randomSeed
   237                          	GLOBAL _tb16
   238                          	GLOBAL _tb8
   239                          	GLOBAL _tb
   240                          	GLOBAL _high_score
   241                          	GLOBAL __autoScroll
   242                          	GLOBAL __vdpMode
   243                          	GLOBAL __vdpTextBufferSize
   244                          	GLOBAL __vdpCursorMaxXFull
   245                          	GLOBAL __vdpCursorMaxX
   246                          	GLOBAL __vdpPatternGeneratorTableAddr
   247                          	GLOBAL __vdpColorTableAddr
   248                          	GLOBAL __vdpPatternNameTableAddr
   249                          	GLOBAL __vdpSpriteSizeSelected
   250                          	GLOBAL __vdpSpriteGeneratorTableAddr
   251                          	GLOBAL __vdpSpriteAttributeTableAddr
   252                          	GLOBAL __vdp_textBuffer
   253                          	GLOBAL __kbdBuffer
   254                          	GLOBAL _MAP
   255                          	GLOBAL _TETRONIMOS
   256                          	GLOBAL _FAT
   257                          	GLOBAL __vdpCursorMaxYFull
   258                          	GLOBAL __vdpCursorMaxY
   259                          	GLOBAL _initNABULib
   260                          	GLOBAL _nop
   261                          	GLOBAL _NABU_DisableInterrupts
   262                          	GLOBAL _NABU_EnableInterrupts
   263                          	GLOBAL _isKeyPressed
   264                          	GLOBAL _getChar
   265                          	GLOBAL _vdp_setRegister
   266                          	GLOBAL _vdp_setWriteAddress
   267                          	GLOBAL _vdp_setReadAddress
   268                          	GLOBAL _vdp_waitVDPReadyInt
   269                          	GLOBAL _vdp_init
   270                          	GLOBAL _vdp_clearVRAM
   271                          	GLOBAL _vdp_clearScreen
   272                          	GLOBAL _vdp_fillScreen
   273                          	GLOBAL _vdp_clearRows
   274                          	GLOBAL _vdp_loadASCIIFont
   275                          	GLOBAL _vdp_putPattern
   276                          	GLOBAL _vdp_loadPatternTable
   277                          	GLOBAL _vdp_loadColorTable
   278                          	GLOBAL _vdp_colorizePattern
   279                          	GLOBAL _vdp_print
   280                          	GLOBAL _vdp_printColorized
   281                          	GLOBAL _vdp_printPart
   282                          	GLOBAL _vdp_newLine
   283                          	GLOBAL _vdp_setBackDropColor
   284                          	GLOBAL _vdp_setCursor2
   285                          	GLOBAL _vdp_setCursor
   286                          	GLOBAL _vdp_setTextColor
   287                          	GLOBAL _vdp_write
   288                          	GLOBAL _vdp_writeCharAtLocation
   289                          	GLOBAL _vdp_getCharAtLocationVRAM
   290                          	GLOBAL _vdp_getCharAtLocationBuf
   291                          	GLOBAL _vdp_setCharAtLocationBuf
   292                          	GLOBAL _vdp_scrollTextUp
   293                          	GLOBAL _vdp_scrollTextDown
   294                          	GLOBAL _vdp_put
   295                          	GLOBAL _vdp_setPatternColor
   296                          	GLOBAL _printAtLocationBuf
   297                          	GLOBAL _centerText
   298                          	GLOBAL _delay
   299                          	GLOBAL _hardReset
   300                          ;--------------------------------------------------------
   301                          ; Externals used
   302                          ;--------------------------------------------------------
   303                          	GLOBAL _ffsll_callee
   304                          	GLOBAL _ffsll
   305                          	GLOBAL _memopd_callee
   306                          	GLOBAL _memopd
   307                          	GLOBAL _memopi_callee
   308                          	GLOBAL _memopi
   309                          	GLOBAL _strrstr_callee
   310                          	GLOBAL _strrstr
   311                          	GLOBAL _strxfrm_callee
   312                          	GLOBAL _strxfrm
   313                          	GLOBAL _strupr
   314                          	GLOBAL _strtok_r_callee
   315                          	GLOBAL _strtok_r
   316                          	GLOBAL _strtok_callee
   317                          	GLOBAL _strtok
   318                          	GLOBAL _strstrip
   319                          	GLOBAL _strstr_callee
   320                          	GLOBAL _strstr
   321                          	GLOBAL _strspn_callee
   322                          	GLOBAL _strspn
   323                          	GLOBAL _strsep_callee
   324                          	GLOBAL _strsep
   325                          	GLOBAL _strrstrip
   326                          	GLOBAL _strrspn_callee
   327                          	GLOBAL _strrspn
   328                          	GLOBAL _strrev
   329                          	GLOBAL _strrcspn_callee
   330                          	GLOBAL _strrcspn
   331                          	GLOBAL _strrchr_callee
   332                          	GLOBAL _strrchr
   333                          	GLOBAL _strpbrk_callee
   334                          	GLOBAL _strpbrk
   335                          	GLOBAL _strnlen_callee
   336                          	GLOBAL _strnlen
   337                          	GLOBAL _strnicmp_callee
   338                          	GLOBAL _strnicmp
   339                          	GLOBAL _strndup_callee
   340                          	GLOBAL _strndup
   341                          	GLOBAL _strncpy_callee
   342                          	GLOBAL _strncpy
   343                          	GLOBAL _strncmp_callee
   344                          	GLOBAL _strncmp
   345                          	GLOBAL _strnchr_callee
   346                          	GLOBAL _strnchr
   347                          	GLOBAL _strncat_callee
   348                          	GLOBAL _strncat
   349                          	GLOBAL _strncasecmp_callee
   350                          	GLOBAL _strncasecmp
   351                          	GLOBAL _strlwr
   352                          	GLOBAL _strlen
   353                          	GLOBAL _strlcpy_callee
   354                          	GLOBAL _strlcpy
   355                          	GLOBAL _strlcat_callee
   356                          	GLOBAL _strlcat
   357                          	GLOBAL _stricmp_callee
   358                          	GLOBAL _stricmp
   359                          	GLOBAL _strerror
   360                          	GLOBAL _strdup
   361                          	GLOBAL _strcspn_callee
   362                          	GLOBAL _strcspn
   363                          	GLOBAL _strcpy_callee
   364                          	GLOBAL _strcpy
   365                          	GLOBAL _strcoll_callee
   366                          	GLOBAL _strcoll
   367                          	GLOBAL _strcmp_callee
   368                          	GLOBAL _strcmp
   369                          	GLOBAL _strchrnul_callee
   370                          	GLOBAL _strchrnul
   371                          	GLOBAL _strchr_callee
   372                          	GLOBAL _strchr
   373                          	GLOBAL _strcat_callee
   374                          	GLOBAL _strcat
   375                          	GLOBAL _strcasecmp_callee
   376                          	GLOBAL _strcasecmp
   377                          	GLOBAL _stpncpy_callee
   378                          	GLOBAL _stpncpy
   379                          	GLOBAL _stpcpy_callee
   380                          	GLOBAL _stpcpy
   381                          	GLOBAL _memswap_callee
   382                          	GLOBAL _memswap
   383                          	GLOBAL _memset_wr_callee
   384                          	GLOBAL _memset_wr
   385                          	GLOBAL _memset_callee
   386                          	GLOBAL _memset
   387                          	GLOBAL _memrchr_callee
   388                          	GLOBAL _memrchr
   389                          	GLOBAL _memmove_callee
   390                          	GLOBAL _memmove
   391                          	GLOBAL _memmem_callee
   392                          	GLOBAL _memmem
   393                          	GLOBAL _memcpy_callee
   394                          	GLOBAL _memcpy
   395                          	GLOBAL _memcmp_callee
   396                          	GLOBAL _memcmp
   397                          	GLOBAL _memchr_callee
   398                          	GLOBAL _memchr
   399                          	GLOBAL _memccpy_callee
   400                          	GLOBAL _memccpy
   401                          	GLOBAL _ffsl
   402                          	GLOBAL _ffs
   403                          	GLOBAL __strrstrip_
   404                          	GLOBAL __memupr__callee
   405                          	GLOBAL __memupr_
   406                          	GLOBAL __memstrcpy__callee
   407                          	GLOBAL __memstrcpy_
   408                          	GLOBAL __memlwr__callee
   409                          	GLOBAL __memlwr_
   410                          	GLOBAL _rawmemchr_callee
   411                          	GLOBAL _rawmemchr
   412                          	GLOBAL _strnset_callee
   413                          	GLOBAL _strnset
   414                          	GLOBAL _strset_callee
   415                          	GLOBAL _strset
   416                          	GLOBAL _rindex_callee
   417                          	GLOBAL _rindex
   418                          	GLOBAL _index_callee
   419                          	GLOBAL _index
   420                          	GLOBAL _bzero_callee
   421                          	GLOBAL _bzero
   422                          	GLOBAL _bcopy_callee
   423                          	GLOBAL _bcopy
   424                          	GLOBAL _bcmp_callee
   425                          	GLOBAL _bcmp
   426                          	GLOBAL _vdp_writeUInt32ToBinary
   427                          	GLOBAL _vdp_writeUInt16ToBinary
   428                          	GLOBAL _vdp_writeUInt8ToBinary
   429                          	GLOBAL _readLine
   430                          	GLOBAL _fputc_cons_ansi
   431                          	GLOBAL _fputc_cons_generic
   432                          	GLOBAL _fputc_cons_native
   433                          	GLOBAL _set_fputc_cons
   434                          	GLOBAL _perror
   435                          	GLOBAL _printk
   436                          	GLOBAL _getk_inkey
   437                          	GLOBAL _getk
   438                          	GLOBAL _remove
   439                          	GLOBAL _rename
   440                          	GLOBAL _fdgetpos
   441                          	GLOBAL _fdtell
   442                          	GLOBAL _fabandon
   443                          	GLOBAL _puts_cons
   444                          	GLOBAL _fgets_cons
   445                          	GLOBAL _fputc_cons
   446                          	GLOBAL _fgetc_cons_inkey
   447                          	GLOBAL _fgetc_cons
   448                          	GLOBAL _fchkstd
   449                          	GLOBAL _getarg
   450                          	GLOBAL _vsscanf
   451                          	GLOBAL _vfscanf
   452                          	GLOBAL _sscanf
   453                          	GLOBAL _fscanf
   454                          	GLOBAL _scanf
   455                          	GLOBAL _printn
   456                          	GLOBAL _vsnprintf
   457                          	GLOBAL _vfprintf
   458                          	GLOBAL _snprintf
   459                          	GLOBAL _sprintf
   460                          	GLOBAL _fprintf
   461                          	GLOBAL _printf
   462                          	GLOBAL _gets
   463                          	GLOBAL _fwrite
   464                          	GLOBAL _fread
   465                          	GLOBAL _fseek
   466                          	GLOBAL _fgetpos
   467                          	GLOBAL _ftell
   468                          	GLOBAL _puts
   469                          	GLOBAL _ferror
   470                          	GLOBAL _feof
   471                          	GLOBAL _ungetc
   472                          	GLOBAL _fgetc
   473                          	GLOBAL _fputc_callee
   474                          	GLOBAL _fputs_callee
   475                          	GLOBAL _fputc
   476                          	GLOBAL _fputs
   477                          	GLOBAL _fgets
   478                          	GLOBAL _closeall
   479                          	GLOBAL _fflush
   480                          	GLOBAL _fclose
   481                          	GLOBAL _funopen
   482                          	GLOBAL _fmemopen
   483                          	GLOBAL __freopen1
   484                          	GLOBAL _fdopen
   485                          	GLOBAL _freopen
   486                          	GLOBAL _fopen
   487                          	GLOBAL _fileno
   488                          	GLOBAL _fopen_zsock
   489                          	GLOBAL _rnd_erase
   490                          	GLOBAL _rnd_saveblock
   491                          	GLOBAL _rnd_loadblock
   492                          	GLOBAL _rmdir
   493                          	GLOBAL _getwd
   494                          	GLOBAL _chdir
   495                          	GLOBAL _getcwd
   496                          	GLOBAL _writebyte
   497                          	GLOBAL _readbyte
   498                          	GLOBAL _lseek
   499                          	GLOBAL _write
   500                          	GLOBAL _read
   501                          	GLOBAL _close
   502                          	GLOBAL _creat
   503                          	GLOBAL _open
   504                          	GLOBAL _gios_esc
   505                          	GLOBAL _gios_text
   506                          	GLOBAL _gios_1px_callee
   507                          	GLOBAL _gios_1px
   508                          	GLOBAL _gios_2px_callee
   509                          	GLOBAL _gios_2px
   510                          	GLOBAL _gios_1pm_callee
   511                          	GLOBAL _gios_1pm
   512                          	GLOBAL _gios
   513                          	GLOBAL _a_serialport
   514                          	GLOBAL _a_driveb
   515                          	GLOBAL _a_memsize
   516                          	GLOBAL _a_biosver
   517                          	GLOBAL _a_machinever
   518                          	GLOBAL _a_machine
   519                          	GLOBAL _a_cury
   520                          	GLOBAL _a_curx
   521                          	GLOBAL _a_ink
   522                          	GLOBAL _a_paper
   523                          	GLOBAL _a_border
   524                          	GLOBAL _a_keyspeed
   525                          	GLOBAL _a_statusline
   526                          	GLOBAL _get_dir_name
   527                          	GLOBAL _dir_get_entry_size
   528                          	GLOBAL _dir_get_entry_name
   529                          	GLOBAL _dir_get_entry_type
   530                          	GLOBAL _dir_move_next
   531                          	GLOBAL _dir_move_first
   532                          	GLOBAL _get_current_volume
   533                          	GLOBAL _change_volume
   534                          	GLOBAL __putoffset
   535                          	GLOBAL _swapuid
   536                          	GLOBAL _putoffset
   537                          	GLOBAL _parsefcb
   538                          	GLOBAL _setfcb
   539                          	GLOBAL _cpm_cache_flush
   540                          	GLOBAL _cpm_cache_get
   541                          	GLOBAL _getfcb
   542                          	GLOBAL _biosh
   543                          	GLOBAL _bios
   544                          	GLOBAL _bdosh_callee
   545                          	GLOBAL _bdosh
   546                          	GLOBAL _bdos_callee
   547                          	GLOBAL _bdos
   548                          	GLOBAL _get_dpb
   549                          	GLOBAL _unbcd
   550                          	GLOBAL _wcmatch
   551                          	GLOBAL _extract_bits_callee
   552                          	GLOBAL _extract_bits
   553                          	GLOBAL _msleep
   554                          	GLOBAL _sleep
   555                          	GLOBAL _t_delay
   556                          	GLOBAL _wpeek
   557                          	GLOBAL _bpeek
   558                          	GLOBAL _wpoke_callee
   559                          	GLOBAL _wpoke
   560                          	GLOBAL _bpoke_callee
   561                          	GLOBAL _bpoke
   562                          	GLOBAL _swapendian
   563                          	GLOBAL _outp_callee
   564                          	GLOBAL _outp
   565                          	GLOBAL _inp
   566                          	GLOBAL _isqrt
   567                          	GLOBAL _labs
   568                          	GLOBAL _abs
   569                          	GLOBAL __ldivu__callee
   570                          	GLOBAL __ldivu_
   571                          	GLOBAL __ldiv__callee
   572                          	GLOBAL __ldiv_
   573                          	GLOBAL __divu__callee
   574                          	GLOBAL __divu_
   575                          	GLOBAL __div__callee
   576                          	GLOBAL __div_
   577                          	GLOBAL _qsort_sdcc_callee
   578                          	GLOBAL _qsort_sdcc
   579                          	GLOBAL _qsort_sccz80_callee
   580                          	GLOBAL _qsort_sccz80
   581                          	GLOBAL _l_qsort_callee
   582                          	GLOBAL _l_qsort
   583                          	GLOBAL _l_bsearch_callee
   584                          	GLOBAL _l_bsearch
   585                          	GLOBAL _getopt
   586                          	GLOBAL _unsetenv
   587                          	GLOBAL _setenv
   588                          	GLOBAL _getenv_r
   589                          	GLOBAL _getenv
   590                          	GLOBAL _atexit
   591                          	GLOBAL _exit
   592                          	GLOBAL _HeapInfo_callee
   593                          	GLOBAL _HeapInfo
   594                          	GLOBAL _HeapRealloc_callee
   595                          	GLOBAL _HeapRealloc
   596                          	GLOBAL _HeapAlloc_callee
   597                          	GLOBAL _HeapAlloc
   598                          	GLOBAL _HeapFree_callee
   599                          	GLOBAL _HeapFree
   600                          	GLOBAL _HeapCalloc_callee
   601                          	GLOBAL _HeapCalloc
   602                          	GLOBAL _HeapSbrk_callee
   603                          	GLOBAL _HeapSbrk
   604                          	GLOBAL _HeapCreate
   605                          	GLOBAL _mallinfo_callee
   606                          	GLOBAL _mallinfo
   607                          	GLOBAL _realloc_callee
   608                          	GLOBAL _realloc
   609                          	GLOBAL _malloc
   610                          	GLOBAL _free
   611                          	GLOBAL _calloc_callee
   612                          	GLOBAL _calloc
   613                          	GLOBAL _sbrk_callee
   614                          	GLOBAL _sbrk
   615                          	GLOBAL _mallinit
   616                          	GLOBAL _srand
   617                          	GLOBAL _rand
   618                          	GLOBAL _ulltoa_callee
   619                          	GLOBAL _ulltoa
   620                          	GLOBAL _strtoull_callee
   621                          	GLOBAL _strtoull
   622                          	GLOBAL _strtoll_callee
   623                          	GLOBAL _strtoll
   624                          	GLOBAL _lltoa_callee
   625                          	GLOBAL _lltoa
   626                          	GLOBAL _atoll_callee
   627                          	GLOBAL _atoll
   628                          	GLOBAL _utoa_callee
   629                          	GLOBAL _utoa
   630                          	GLOBAL _ultoa_callee
   631                          	GLOBAL _ultoa
   632                          	GLOBAL _strtoul_callee
   633                          	GLOBAL _strtoul
   634                          	GLOBAL _strtol_callee
   635                          	GLOBAL _strtol
   636                          	GLOBAL _ltoa_callee
   637                          	GLOBAL _ltoa
   638                          	GLOBAL _itoa_callee
   639                          	GLOBAL _itoa
   640                          	GLOBAL _atol
   641                          	GLOBAL _atoi
   642                          	GLOBAL __sgoioblk_end
   643                          	GLOBAL __sgoioblk
   644                          	GLOBAL __FOPEN_MAX
   645                          	GLOBAL __RND_BLOCKSIZE
   646                          	GLOBAL _gios_ptsout
   647                          	GLOBAL _gios_intout
   648                          	GLOBAL _gios_ptsin
   649                          	GLOBAL _gios_intin
   650                          	GLOBAL _gios_ctl
   651                          	GLOBAL _gios_pb
   652                          	GLOBAL _fc_dirbuf
   653                          	GLOBAL _fc_dirpos
   654                          	GLOBAL _fc_dir
   655                          	GLOBAL __fcb
   656                          	GLOBAL __CLIB_OPEN_MAX
   657                          	GLOBAL _optreset
   658                          	GLOBAL _optopt
   659                          	GLOBAL _optind
   660                          	GLOBAL _opterr
   661                          	GLOBAL _optarg
   662                          ;--------------------------------------------------------
   663                          ; special function registers
   664                          ;--------------------------------------------------------
   665                          defc _IO_VDPDATA	=	0x0080
   666                          defc _IO_VDPLATCH	=	0x0081
   667                          defc _IO_JOY0	=	0x00a8
   668                          defc _IO_JOY1	=	0x00a9
   669                          ;--------------------------------------------------------
   670                          ; ram data
   671                          ;--------------------------------------------------------
   672                          	SECTION bss_compiler
   673                          __kbdBuffer:
   674  0000  0000000000000000  	DEFS 256
              0000000000000000  
              0000000000000000  
              0000000000000000  
              0000000000000000  
              0000000000000000  
              0000000000000000  
              0000000000000000  
              0000000000000000  
              0000000000000000  
              0000000000000000  
              0000000000000000  
              0000000000000000  
              0000000000000000  
              0000000000000000  
              0000000000000000  
              0000000000000000  
              0000000000000000  
              0000000000000000  
              0000000000000000  
              0000000000000000  
              0000000000000000  
              0000000000000000  
              0000000000000000  
              0000000000000000  
              0000000000000000  
              0000000000000000  
              0000000000000000  
              0000000000000000  
              0000000000000000  
              0000000000000000  
              0000000000000000  
   675                          __vdp_textBuffer:
   676  0100  0000000000000000  	DEFS 768
              0000000000000000  
              0000000000000000  
              0000000000000000  
              0000000000000000  
              0000000000000000  
              0000000000000000  
              0000000000000000  
              0000000000000000  
              0000000000000000  
              0000000000000000  
              0000000000000000  
              0000000000000000  
              0000000000000000  
              0000000000000000  
              0000000000000000  
              0000000000000000  
              0000000000000000  
              0000000000000000  
              0000000000000000  
              0000000000000000  
              0000000000000000  
              0000000000000000  
              0000000000000000  
              0000000000000000  
              0000000000000000  
              0000000000000000  
              0000000000000000  
              0000000000000000  
              0000000000000000  
              0000000000000000  
              0000000000000000  
              0000000000000000  
              0000000000000000  
              0000000000000000  
              0000000000000000  
              0000000000000000  
              0000000000000000  
              0000000000000000  
              0000000000000000  
              0000000000000000  
              0000000000000000  
              0000000000000000  
              0000000000000000  
              0000000000000000  
              0000000000000000  
              0000000000000000  
              0000000000000000  
              0000000000000000  
              0000000000000000  
              0000000000000000  
              0000000000000000  
              0000000000000000  
              0000000000000000  
              0000000000000000  
              0000000000000000  
              0000000000000000  
              0000000000000000  
              0000000000000000  
              0000000000000000  
              0000000000000000  
              0000000000000000  
              0000000000000000  
              0000000000000000  
              0000000000000000  
              0000000000000000  
              0000000000000000  
              0000000000000000  
              0000000000000000  
              0000000000000000  
              0000000000000000  
              0000000000000000  
              0000000000000000  
              0000000000000000  
              0000000000000000  
              0000000000000000  
              0000000000000000  
              0000000000000000  
              0000000000000000  
              0000000000000000  
              0000000000000000  
              0000000000000000  
              0000000000000000  
              0000000000000000  
              0000000000000000  
              0000000000000000  
              0000000000000000  
              0000000000000000  
              0000000000000000  
              0000000000000000  
              0000000000000000  
              0000000000000000  
              0000000000000000  
              0000000000000000  
              0000000000000000  
              0000000000000000  
   677                          __vdpSpriteAttributeTableAddr:
   678  0400  0000              	DEFS 2
   679                          __vdpSpriteGeneratorTableAddr:
   680  0402  0000              	DEFS 2
   681                          __vdpSpriteSizeSelected:
   682  0404  00                	DEFS 1
   683                          __vdpPatternNameTableAddr:
   684  0405  0000              	DEFS 2
   685                          __vdpColorTableAddr:
   686  0407  0000              	DEFS 2
   687                          __vdpPatternGeneratorTableAddr:
   688  0409  0000              	DEFS 2
   689                          __vdpCursorMaxX:
   690  040b  00                	DEFS 1
   691                          __vdpCursorMaxXFull:
   692  040c  00                	DEFS 1
   693                          __vdpTextBufferSize:
   694  040d  0000              	DEFS 2
   695                          __vdpMode:
   696  040f  00                	DEFS 1
   697                          __autoScroll:
   698  0410  00                	DEFS 1
   699                          _high_score:
   700  0411  0000              	DEFS 2
   701                          _tb:
   702  0413  0000000000000000  	DEFS 64
              0000000000000000  
              0000000000000000  
              0000000000000000  
              0000000000000000  
              0000000000000000  
              0000000000000000  
              0000000000000000  
   703                          _tb8:
   704  0453  00000000          	DEFS 4
   705                          _tb16:
   706  0457  000000000000      	DEFS 6
   707                          ;--------------------------------------------------------
   708                          ; ram data
   709                          ;--------------------------------------------------------
   710                          
   711                          IF 0
   712                          
   713                          ; .area _INITIALIZED removed by z88dk
   714                          
   715                          __randomSeed:
   716                          	DEFS 1
   717                          __kbdBufferReadPos:
   718                          	DEFS 1
   719                          __kbdBufferWritePos:
   720                          	DEFS 1
   721                          __lastKeyboardIntVal:
   722                          	DEFS 1
   723                          __joyStatus:
   724                          	DEFS 4
   725                          _vdp_cursor:
   726                          	DEFS 2
   727                          __vdpReg1Val:
   728                          	DEFS 1
   729                          __vdpInterruptEnabled:
   730                          	DEFS 1
   731                          _block_count:
   732                          	DEFS 1
   733                          _used_blocks:
   734                          	DEFS 7
   735                          _tets:
   736                          	DEFS 14
   737                          
   738                          ENDIF
   739                          
   740                          ;--------------------------------------------------------
   741                          ; absolute external ram data
   742                          ;--------------------------------------------------------
   743                          	SECTION IGNORE
   744                          ;--------------------------------------------------------
   745                          ; global & static initialisations
   746                          ;--------------------------------------------------------
   747                          	SECTION code_crt_init
   748                          ;--------------------------------------------------------
   749                          ; Home
   750                          ;--------------------------------------------------------
   751                          	SECTION IGNORE
   752                          ;--------------------------------------------------------
   753                          ; code
   754                          ;--------------------------------------------------------
   755                          	SECTION code_compiler
   756                          ;	---------------------------------
   757                          ; Function initNABULib
   758                          ; ---------------------------------
   759                          _initNABULib:
   760  0000  f5                	push	af
   761  0001  ed5f              	ld	a, r
   762  0003  320000            	ld	(__randomSeed), a
   763  0006  3e00              	LD	A,01100100B
   764  0008  ed3900            	OUT0	(0x00),A
   765  000b  3e00              	LD	A,00000000B
   766  000d  ed3900            	OUT0	(0x02),A
   767  0010  3e00              	LD	A,01100110B
   768  0012  ed3900            	OUT0	(0x12),A
   769  0015  3e00              	LD	A,0
   770  0017  ed3900            	OUT0	(0x04),A
   771  001a  f1                	pop	af
   772  001b  3a0000            	ld	a, (__randomSeed+0)
   773  001e  6f                	ld	l, a
   774  001f  2600              	ld	h,0x00
   775  0021  c30000            	jp	_srand
   776                          	SECTION rodata_compiler
   777                          __vdpCursorMaxY:
   778  0000  00                	DEFB +0x17
   779                          __vdpCursorMaxYFull:
   780  0001  00                	DEFB +0x18
   781                          	SECTION code_compiler
   782                          ;	---------------------------------
   783                          ; Function nop
   784                          ; ---------------------------------
   785                          _nop:
   786  0024  00                	NOP
   787  0025  c9                	ret
   788                          	SECTION code_compiler
   789                          ;	---------------------------------
   790                          ; Function NABU_DisableInterrupts
   791                          ; ---------------------------------
   792                          _NABU_DisableInterrupts:
   793  0026  f3                	di
   794  0027  c9                	ret
   795                          	SECTION code_compiler
   796                          ;	---------------------------------
   797                          ; Function NABU_EnableInterrupts
   798                          ; ---------------------------------
   799                          _NABU_EnableInterrupts:
   800  0028  fb                	ei
   801  0029  c9                	ret
   802                          	SECTION code_compiler
   803                          ;	---------------------------------
   804                          ; Function isCloudCPM
   805                          ; ---------------------------------
   806                          _isCloudCPM:
   807  002a  2e00              	ld	l,0x00
   808  002c  c9                	ret
   809                          	SECTION code_compiler
   810                          ;	---------------------------------
   811                          ; Function isKeyPressed
   812                          ; ---------------------------------
   813                          _isKeyPressed:
   814  002d  3e00              	LD	A,0
   815  002f  ed3800            	IN0	A,(0x00)
   816  0032  e600              	AND	~0x08
   817  0034  ed3900            	OUT0	(0x00),A
   818  0037  3e00              	LD	A,0
   819  0039  ed3800            	IN0	A,(0x04)
   820  003c  e600              	AND	0b10000000
   821  003e  6f                	LD	L,A
   822  003f  c9                	RET
   823                          ;	---------------------------------
   824                          ; Function getChar
   825                          ; ---------------------------------
   826                          _getChar:
   827  0040  3e00              	LD	A,0
   828  0042  ed3800            	IN0	A,(0x08)
   829  0045  6f                	LD	L,A
   830  0046  c9                	RET
   831                          ;	---------------------------------
   832                          ; Function vdp_setRegister
   833                          ; ---------------------------------
   834                          _vdp_setRegister:
   835  0047  fd210000          	ld	iy,3
   836  004b  fd39              	add	iy, sp
   837  004d  fd7e00            	ld	a,(iy+0)
   838  0050  d300              	out	(_IO_VDPLATCH), a
   839  0052  fd2b              	dec	iy
   840  0054  fd7e00            	ld	a,(iy+0)
   841  0057  f600              	or	a,0x80
   842  0059  d300              	out	(_IO_VDPLATCH), a
   843  005b  c9                	ret
   844                          	SECTION code_compiler
   845                          ;	---------------------------------
   846                          ; Function vdp_setWriteAddress
   847                          ; ---------------------------------
   848                          _vdp_setWriteAddress:
   849  005c  7d                	ld	a, l
   850  005d  d300              	out	(_IO_VDPLATCH), a
   851  005f  7c                	ld	a, h
   852  0060  e600              	and	a,0x3f
   853  0062  f600              	or	a,0x40
   854  0064  d300              	out	(_IO_VDPLATCH), a
   855  0066  c9                	ret
   856                          	SECTION code_compiler
   857                          ;	---------------------------------
   858                          ; Function vdp_setReadAddress
   859                          ; ---------------------------------
   860                          _vdp_setReadAddress:
   861  0067  7d                	ld	a, l
   862  0068  d300              	out	(_IO_VDPLATCH), a
   863  006a  7c                	ld	a, h
   864  006b  e600              	and	a,0x3f
   865  006d  d300              	out	(_IO_VDPLATCH), a
   866  006f  c9                	ret
   867                          	SECTION code_compiler
   868                          ;	---------------------------------
   869                          ; Function vdp_waitVDPReadyInt
   870                          ; ---------------------------------
   871                          _vdp_waitVDPReadyInt:
   872  0070  010000            	ld	bc,0x3fff
   873                          l_vdp_waitVDPReadyInt_00104:
   874  0073  0b                	dec	bc
   875  0074  78                	ld	a, b
   876  0075  b1                	or	a, c
   877  0076  2000              	jr	NZ,l_vdp_waitVDPReadyInt_00104
   878  0078  c9                	ret
   879                          	SECTION code_compiler
   880                          ;	---------------------------------
   881                          ; Function vdp_enableVDPReadyInt
   882                          ; ---------------------------------
   883                          _vdp_enableVDPReadyInt:
   884  0079  3a0000            	ld	a, (__vdpReg1Val+0)
   885  007c  cbef              	set	5, a
   886  007e  57                	ld	d,a
   887  007f  1e00              	ld	e,0x01
   888  0081  d5                	push	de
   889  0082  cd0000            	call	_vdp_setRegister
   890  0085  33                	inc	sp
   891  0086  33                	inc	sp
   892  0087  c9                	ret
   893                          	SECTION code_compiler
   894                          ;	---------------------------------
   895                          ; Function vdp_disableVDPReadyInt
   896                          ; ---------------------------------
   897                          _vdp_disableVDPReadyInt:
   898  0088  3a0000            	ld	a, (__vdpReg1Val+0)
   899  008b  57                	ld	d,a
   900  008c  1e00              	ld	e,0x01
   901  008e  d5                	push	de
   902  008f  cd0000            	call	_vdp_setRegister
   903  0092  33                	inc	sp
   904  0093  33                	inc	sp
   905  0094  c9                	ret
   906                          	SECTION code_compiler
   907                          ;	---------------------------------
   908                          ; Function vdp_init
   909                          ; ---------------------------------
   910                          _vdp_init:
   911  0095  fd210000          	ld	iy,2
   912  0099  fd39              	add	iy, sp
   913  009b  fd7e00            	ld	a,(iy+0)
   914  009e  320000            	ld	(__vdpMode+0), a
   915  00a1  fd23              	inc	iy
   916  00a3  fd23              	inc	iy
   917  00a5  fd23              	inc	iy
   918  00a7  fd7e00            	ld	a,(iy+0)
   919  00aa  320000            	ld	(__vdpSpriteSizeSelected+0), a
   920  00ad  fd7e00            	ld	a,(iy+0+1+1)
   921  00b0  320000            	ld	(__autoScroll+0), a
   922  00b3  210000            	ld	hl,__vdpInterruptEnabled + 0
   923  00b6  3600              	ld	(hl),0x00
   924  00b8  210000            	ld	hl,_vdp_cursor
   925  00bb  3600              	ld	(hl),0x00
   926  00bd  210000            	ld	hl, +(_vdp_cursor + 1)
   927  00c0  3600              	ld	(hl),0x00
   928  00c2  210000            	ld	hl,0x0000
   929  00c5  220000            	ld	(__vdpPatternGeneratorTableAddr), hl
   930  00c8  2600              	ld	h,0x08
   931  00ca  220000            	ld	(__vdpPatternNameTableAddr), hl
   932  00cd  2600              	ld	h,0x0b
   933  00cf  220000            	ld	(__vdpColorTableAddr), hl
   934  00d2  fd210000          	ld	iy,__vdpCursorMaxX
   935  00d6  fd360000          	ld	(iy+0),0x1f
   936  00da  fd210000          	ld	iy,__vdpCursorMaxXFull
   937  00de  fd360000          	ld	(iy+0),0x20
   938  00e2  2600              	ld	h,0x03
   939  00e4  220000            	ld	(__vdpTextBufferSize), hl
   940  00e7  fd210000          	ld	iy,3
   941  00eb  fd39              	add	iy, sp
   942  00ed  fd7e00            	ld	a,(iy+0)
   943  00f0  87                	add	a, a
   944  00f1  87                	add	a, a
   945  00f2  87                	add	a, a
   946  00f3  87                	add	a, a
   947  00f4  4f                	ld	c, a
   948  00f5  fd7e00            	ld	a,(iy+0+1)
   949  00f8  e600              	and	a,0x0f
   950  00fa  b1                	or	a, c
   951  00fb  57                	ld	d,a
   952  00fc  1e00              	ld	e,0x07
   953  00fe  d5                	push	de
   954  00ff  cd0000            	call	_vdp_setRegister
   955  0102  33                	inc	sp
   956  0103  33                	inc	sp
   957  0104  c30000            	jp	_vdp_clearScreen
   958                          	SECTION code_compiler
   959                          ;	---------------------------------
   960                          ; Function vdp_clearVRAM
   961                          ; ---------------------------------
   962                          _vdp_clearVRAM:
   963  0107  210000            	ld	hl,0x0000
   964  010a  cd0000            	call	_vdp_setWriteAddress
   965  010d  010000            	ld	bc,0x0000
   966                          l_vdp_clearVRAM_00103:
   967  0110  78                	ld	a, b
   968  0111  d600              	sub	a,0x0e
   969  0113  d0                	ret	NC
   970  0114  c5                	push	bc
   971  0115  2e00              	ld	l,0x00
   972  0117  cd0000            	call	_vdp_put
   973  011a  c1                	pop	bc
   974  011b  03                	inc	bc
   975  011c  1800              	jr	l_vdp_clearVRAM_00103
   976                          	SECTION code_compiler
   977                          ;	---------------------------------
   978                          ; Function vdp_initG1Mode
   979                          ; ---------------------------------
   980                          _vdp_initG1Mode:
   981  011e  fd210000          	ld	iy,6
   982  0122  fd39              	add	iy, sp
   983  0124  fd7e00            	ld	a,(iy+0)
   984  0127  f5                	push	af
   985  0128  33                	inc	sp
   986  0129  fd2b              	dec	iy
   987  012b  fd7e00            	ld	a,(iy+0)
   988  012e  f5                	push	af
   989  012f  33                	inc	sp
   990  0130  fd2b              	dec	iy
   991  0132  fd7e00            	ld	a,(iy+0)
   992  0135  f5                	push	af
   993  0136  33                	inc	sp
   994  0137  fd2b              	dec	iy
   995  0139  fd7e00            	ld	a,(iy+0)
   996  013c  f5                	push	af
   997  013d  33                	inc	sp
   998  013e  fd2b              	dec	iy
   999  0140  fd7e00            	ld	a,(iy+0)
  1000  0143  f5                	push	af
  1001  0144  33                	inc	sp
  1002  0145  af                	xor	a, a
  1003  0146  57                	ld	d,a
  1004  0147  1e00              	ld	e,0x01
  1005  0149  d5                	push	de
  1006  014a  cd0000            	call	_vdp_init
  1007  014d  210000            	ld	hl,7
  1008  0150  39                	add	hl, sp
  1009  0151  f9                	ld	sp, hl
  1010  0152  c9                	ret
  1011                          	SECTION code_compiler
  1012                          ;	---------------------------------
  1013                          ; Function vdp_clearScreen
  1014                          ; ---------------------------------
  1015                          _vdp_clearScreen:
  1016  0153  2a0000            	ld	hl, (__vdpPatternNameTableAddr)
  1017  0156  cd0000            	call	_vdp_setWriteAddress
  1018  0159  010000            	ld	bc,__vdp_textBuffer+0
  1019  015c  3a0000            	ld	a, (__vdpCursorMaxXFull+0)
  1020  015f  5f                	ld	e, a
  1021  0160  1600              	ld	d,0x00
  1022  0162  6b                	ld	l, e
  1023  0163  62                	ld	h, d
  1024  0164  29                	add	hl, hl
  1025  0165  19                	add	hl, de
  1026  0166  29                	add	hl, hl
  1027  0167  29                	add	hl, hl
  1028  0168  29                	add	hl, hl
  1029  0169  09                	add	hl, bc
  1030  016a  eb                	ex	de, hl
  1031                          l_vdp_clearScreen_00101:
  1032  016b  c5                	push	bc
  1033  016c  d5                	push	de
  1034  016d  2e00              	ld	l,0x00
  1035  016f  cd0000            	call	_vdp_put
  1036  0172  d1                	pop	de
  1037  0173  c1                	pop	bc
  1038  0174  3e00              	ld	a,0x20
  1039  0176  02                	ld	(bc), a
  1040  0177  03                	inc	bc
  1041  0178  69                	ld	l, c
  1042  0179  60                	ld	h, b
  1043  017a  bf                	cp	a, a
  1044  017b  ed52              	sbc	hl, de
  1045  017d  2000              	jr	NZ,l_vdp_clearScreen_00101
  1046  017f  c9                	ret
  1047                          	SECTION code_compiler
  1048                          ;	---------------------------------
  1049                          ; Function vdp_fillScreen
  1050                          ; ---------------------------------
  1051                          _vdp_fillScreen:
  1052  0180  dde5              	push	ix
  1053  0182  dd210000          	ld	ix,0
  1054  0186  dd39              	add	ix,sp
  1055  0188  3b                	dec	sp
  1056  0189  dd7500            	ld	(ix-1),l
  1057  018c  2a0000            	ld	hl, (__vdpPatternNameTableAddr)
  1058  018f  cd0000            	call	_vdp_setWriteAddress
  1059  0192  010000            	ld	bc,__vdp_textBuffer+0
  1060  0195  3a0000            	ld	a, (__vdpCursorMaxXFull+0)
  1061  0198  5f                	ld	e, a
  1062  0199  1600              	ld	d,0x00
  1063  019b  6b                	ld	l, e
  1064  019c  62                	ld	h, d
  1065  019d  29                	add	hl, hl
  1066  019e  19                	add	hl, de
  1067  019f  29                	add	hl, hl
  1068  01a0  29                	add	hl, hl
  1069  01a1  29                	add	hl, hl
  1070  01a2  09                	add	hl, bc
  1071  01a3  eb                	ex	de, hl
  1072                          l_vdp_fillScreen_00101:
  1073  01a4  c5                	push	bc
  1074  01a5  d5                	push	de
  1075  01a6  dd6e00            	ld	l,(ix-1)
  1076  01a9  cd0000            	call	_vdp_put
  1077  01ac  d1                	pop	de
  1078  01ad  c1                	pop	bc
  1079  01ae  dd7e00            	ld	a,(ix-1)
  1080  01b1  02                	ld	(bc), a
  1081  01b2  03                	inc	bc
  1082  01b3  69                	ld	l, c
  1083  01b4  60                	ld	h, b
  1084  01b5  bf                	cp	a, a
  1085  01b6  ed52              	sbc	hl, de
  1086  01b8  2000              	jr	NZ,l_vdp_fillScreen_00101
  1087  01ba  33                	inc	sp
  1088  01bb  dde1              	pop	ix
  1089  01bd  c9                	ret
  1090                          	SECTION code_compiler
  1091                          ;	---------------------------------
  1092                          ; Function vdp_clearRows
  1093                          ; ---------------------------------
  1094                          _vdp_clearRows:
  1095  01be  dde5              	push	ix
  1096  01c0  dd210000          	ld	ix,0
  1097  01c4  dd39              	add	ix,sp
  1098  01c6  dd4600            	ld	b,(ix+4)
  1099  01c9  210000            	ld	hl,__vdpCursorMaxXFull + 0
  1100  01cc  4e                	ld	c, (hl)
  1101  01cd  ed4c              	mlt	bc
  1102  01cf  2a0000            	ld	hl, (__vdpPatternNameTableAddr)
  1103  01d2  09                	add	hl, bc
  1104  01d3  cd0000            	call	_vdp_setWriteAddress
  1105  01d6  dd4600            	ld	b,(ix+4)
  1106  01d9  fd210000          	ld	iy,__vdpCursorMaxXFull
  1107  01dd  fd4e00            	ld	c,(iy+0)
  1108  01e0  ed4c              	mlt	bc
  1109  01e2  210000            	ld	hl,__vdp_textBuffer
  1110  01e5  09                	add	hl, bc
  1111  01e6  4d                	ld	c, l
  1112  01e7  44                	ld	b, h
  1113  01e8  dd5600            	ld	d,(ix+5)
  1114  01eb  fd5e00            	ld	e,(iy+0)
  1115  01ee  ed5c              	mlt	de
  1116  01f0  210000            	ld	hl,__vdp_textBuffer
  1117  01f3  19                	add	hl, de
  1118  01f4  eb                	ex	de, hl
  1119                          l_vdp_clearRows_00101:
  1120  01f5  c5                	push	bc
  1121  01f6  d5                	push	de
  1122  01f7  2e00              	ld	l,0x20
  1123  01f9  cd0000            	call	_vdp_put
  1124  01fc  d1                	pop	de
  1125  01fd  c1                	pop	bc
  1126  01fe  3e00              	ld	a,0x20
  1127  0200  02                	ld	(bc), a
  1128  0201  03                	inc	bc
  1129  0202  6b                	ld	l, e
  1130  0203  62                	ld	h, d
  1131  0204  bf                	cp	a, a
  1132  0205  ed42              	sbc	hl, bc
  1133  0207  2000              	jr	NZ,l_vdp_clearRows_00101
  1134  0209  dde1              	pop	ix
  1135  020b  c9                	ret
  1136                          	SECTION code_compiler
  1137                          ;	---------------------------------
  1138                          ; Function vdp_loadASCIIFont
  1139                          ; ---------------------------------
  1140                          _vdp_loadASCIIFont:
  1141  020c  eb                	ex	de, hl
  1142  020d  2a0000            	ld	hl, (__vdpPatternGeneratorTableAddr)
  1143  0210  010000            	ld	bc,0x0100
  1144  0213  09                	add	hl, bc
  1145  0214  d5                	push	de
  1146  0215  cd0000            	call	_vdp_setWriteAddress
  1147  0218  d1                	pop	de
  1148  0219  210000            	ld	hl,0x0300
  1149  021c  19                	add	hl, de
  1150  021d  4d                	ld	c, l
  1151  021e  44                	ld	b, h
  1152                          l_vdp_loadASCIIFont_00101:
  1153  021f  1a                	ld	a, (de)
  1154  0220  6f                	ld	l, a
  1155  0221  c5                	push	bc
  1156  0222  d5                	push	de
  1157  0223  cd0000            	call	_vdp_put
  1158  0226  d1                	pop	de
  1159  0227  c1                	pop	bc
  1160  0228  13                	inc	de
  1161  0229  6b                	ld	l, e
  1162  022a  62                	ld	h, d
  1163  022b  bf                	cp	a, a
  1164  022c  ed42              	sbc	hl, bc
  1165  022e  2000              	jr	NZ,l_vdp_loadASCIIFont_00101
  1166  0230  c9                	ret
  1167                          	SECTION code_compiler
  1168                          ;	---------------------------------
  1169                          ; Function vdp_putPattern
  1170                          ; ---------------------------------
  1171                          _vdp_putPattern:
  1172  0231  dde5              	push	ix
  1173  0233  dd210000          	ld	ix,0
  1174  0237  dd39              	add	ix,sp
  1175  0239  dd4600            	ld	b,(ix+5)
  1176  023c  210000            	ld	hl,__vdpCursorMaxXFull + 0
  1177  023f  4e                	ld	c, (hl)
  1178  0240  ed4c              	mlt	bc
  1179  0242  dd6e00            	ld	l,(ix+4)
  1180  0245  2600              	ld	h,0x00
  1181  0247  09                	add	hl, bc
  1182  0248  eb                	ex	de, hl
  1183  0249  2a0000            	ld	hl, (__vdpPatternNameTableAddr)
  1184  024c  19                	add	hl, de
  1185  024d  d5                	push	de
  1186  024e  cd0000            	call	_vdp_setWriteAddress
  1187  0251  d1                	pop	de
  1188  0252  210000            	ld	hl,__vdp_textBuffer+0
  1189  0255  19                	add	hl, de
  1190  0256  dd7e00            	ld	a,(ix+6)
  1191  0259  77                	ld	(hl), a
  1192  025a  dd6e00            	ld	l,(ix+6)
  1193  025d  dde1              	pop	ix
  1194  025f  c30000            	jp	_vdp_put
  1195                          	SECTION code_compiler
  1196                          ;	---------------------------------
  1197                          ; Function vdp_loadPatternTable
  1198                          ; ---------------------------------
  1199                          _vdp_loadPatternTable:
  1200  0262  dde5              	push	ix
  1201  0264  dd210000          	ld	ix,0
  1202  0268  dd39              	add	ix,sp
  1203  026a  dd4e00            	ld	c,(ix+4)
  1204  026d  dd4600            	ld	b,(ix+5)
  1205  0270  dd6e00            	ld	l,(ix+6)
  1206  0273  dd6600            	ld	h,(ix+7)
  1207  0276  09                	add	hl, bc
  1208  0277  c5                	push	bc
  1209  0278  e5                	push	hl
  1210  0279  2a0000            	ld	hl, (__vdpPatternGeneratorTableAddr)
  1211  027c  cd0000            	call	_vdp_setWriteAddress
  1212  027f  d1                	pop	de
  1213  0280  c1                	pop	bc
  1214                          l_vdp_loadPatternTable_00101:
  1215  0281  0a                	ld	a, (bc)
  1216  0282  6f                	ld	l, a
  1217  0283  c5                	push	bc
  1218  0284  d5                	push	de
  1219  0285  cd0000            	call	_vdp_put
  1220  0288  d1                	pop	de
  1221  0289  c1                	pop	bc
  1222  028a  03                	inc	bc
  1223  028b  69                	ld	l, c
  1224  028c  60                	ld	h, b
  1225  028d  bf                	cp	a, a
  1226  028e  ed52              	sbc	hl, de
  1227  0290  2000              	jr	NZ,l_vdp_loadPatternTable_00101
  1228  0292  dde1              	pop	ix
  1229  0294  c9                	ret
  1230                          	SECTION code_compiler
  1231                          ;	---------------------------------
  1232                          ; Function vdp_loadColorTable
  1233                          ; ---------------------------------
  1234                          _vdp_loadColorTable:
  1235  0295  dde5              	push	ix
  1236  0297  dd210000          	ld	ix,0
  1237  029b  dd39              	add	ix,sp
  1238  029d  dd4e00            	ld	c,(ix+4)
  1239  02a0  dd4600            	ld	b,(ix+5)
  1240  02a3  dd6e00            	ld	l,(ix+6)
  1241  02a6  dd6600            	ld	h,(ix+7)
  1242  02a9  09                	add	hl, bc
  1243  02aa  c5                	push	bc
  1244  02ab  e5                	push	hl
  1245  02ac  2a0000            	ld	hl, (__vdpColorTableAddr)
  1246  02af  cd0000            	call	_vdp_setWriteAddress
  1247  02b2  d1                	pop	de
  1248  02b3  c1                	pop	bc
  1249                          l_vdp_loadColorTable_00101:
  1250  02b4  0a                	ld	a, (bc)
  1251  02b5  6f                	ld	l, a
  1252  02b6  c5                	push	bc
  1253  02b7  d5                	push	de
  1254  02b8  cd0000            	call	_vdp_put
  1255  02bb  d1                	pop	de
  1256  02bc  c1                	pop	bc
  1257  02bd  03                	inc	bc
  1258  02be  69                	ld	l, c
  1259  02bf  60                	ld	h, b
  1260  02c0  bf                	cp	a, a
  1261  02c1  ed52              	sbc	hl, de
  1262  02c3  2000              	jr	NZ,l_vdp_loadColorTable_00101
  1263  02c5  dde1              	pop	ix
  1264  02c7  c9                	ret
  1265                          	SECTION code_compiler
  1266                          ;	---------------------------------
  1267                          ; Function vdp_colorizePattern
  1268                          ; ---------------------------------
  1269                          _vdp_colorizePattern:
  1270  02c8  fd210000          	ld	iy,3
  1271  02cc  fd39              	add	iy, sp
  1272  02ce  fd7e00            	ld	a,(iy+0)
  1273  02d1  87                	add	a, a
  1274  02d2  87                	add	a, a
  1275  02d3  87                	add	a, a
  1276  02d4  87                	add	a, a
  1277  02d5  fd23              	inc	iy
  1278  02d7  fd4e00            	ld	c,(iy+0)
  1279  02da  81                	add	a, c
  1280  02db  4f                	ld	c, a
  1281  02dc  fd2b              	dec	iy
  1282  02de  fd2b              	dec	iy
  1283  02e0  fd6e00            	ld	l,(iy+0)
  1284  02e3  2600              	ld	h,0x00
  1285  02e5  ed5b0000          	ld	de, (__vdpColorTableAddr)
  1286  02e9  19                	add	hl, de
  1287  02ea  c5                	push	bc
  1288  02eb  cd0000            	call	_vdp_setWriteAddress
  1289  02ee  c1                	pop	bc
  1290  02ef  69                	ld	l, c
  1291  02f0  c30000            	jp	_vdp_put
  1292                          	SECTION code_compiler
  1293                          ;	---------------------------------
  1294                          ; Function vdp_print
  1295                          ; ---------------------------------
  1296                          _vdp_print:
  1297                          l_vdp_print_00101:
  1298  02f3  4e                	ld	c, (hl)
  1299  02f4  79                	ld	a, c
  1300  02f5  b7                	or	a, a
  1301  02f6  c8                	ret	Z
  1302  02f7  e5                	push	hl
  1303  02f8  69                	ld	l, c
  1304  02f9  cd0000            	call	_vdp_write
  1305  02fc  e1                	pop	hl
  1306  02fd  23                	inc	hl
  1307  02fe  1800              	jr	l_vdp_print_00101
  1308                          	SECTION code_compiler
  1309                          ;	---------------------------------
  1310                          ; Function vdp_printColorized
  1311                          ; ---------------------------------
  1312                          _vdp_printColorized:
  1313  0300  fd210000          	ld	iy,2
  1314  0304  fd39              	add	iy, sp
  1315  0306  fd4e00            	ld	c,(iy+0)
  1316  0309  fd4600            	ld	b,(iy+1)
  1317                          l_vdp_printColorized_00101:
  1318  030c  0a                	ld	a, (bc)
  1319  030d  b7                	or	a, a
  1320  030e  c8                	ret	Z
  1321  030f  c5                	push	bc
  1322  0310  fd210000          	ld	iy,7
  1323  0314  fd39              	add	iy, sp
  1324  0316  fd6600            	ld	h,(iy+0)
  1325  0319  e5                	push	hl
  1326  031a  33                	inc	sp
  1327  031b  fd2b              	dec	iy
  1328  031d  fd6600            	ld	h,(iy+0)
  1329  0320  e5                	push	hl
  1330  0321  33                	inc	sp
  1331  0322  f5                	push	af
  1332  0323  33                	inc	sp
  1333  0324  cd0000            	call	_vdp_colorizePattern
  1334  0327  33                	inc	sp
  1335  0328  33                	inc	sp
  1336  0329  33                	inc	sp
  1337  032a  c1                	pop	bc
  1338  032b  0a                	ld	a, (bc)
  1339  032c  6f                	ld	l, a
  1340  032d  c5                	push	bc
  1341  032e  cd0000            	call	_vdp_write
  1342  0331  c1                	pop	bc
  1343  0332  03                	inc	bc
  1344  0333  1800              	jr	l_vdp_printColorized_00101
  1345                          	SECTION code_compiler
  1346                          ;	---------------------------------
  1347                          ; Function vdp_printPart
  1348                          ; ---------------------------------
  1349                          _vdp_printPart:
  1350  0335  dde5              	push	ix
  1351  0337  dd210000          	ld	ix,0
  1352  033b  dd39              	add	ix,sp
  1353  033d  dd7e00            	ld	a,(ix+8)
  1354  0340  dd8600            	add	a,(ix+4)
  1355  0343  4f                	ld	c, a
  1356  0344  dd7e00            	ld	a,(ix+9)
  1357  0347  dd8e00            	adc	a,(ix+5)
  1358  034a  47                	ld	b, a
  1359  034b  dd6e00            	ld	l,(ix+6)
  1360  034e  dd6600            	ld	h,(ix+7)
  1361  0351  09                	add	hl, bc
  1362  0352  eb                	ex	de, hl
  1363                          l_vdp_printPart_00101:
  1364  0353  69                	ld	l, c
  1365  0354  60                	ld	h, b
  1366  0355  bf                	cp	a, a
  1367  0356  ed52              	sbc	hl, de
  1368  0358  2800              	jr	Z,l_vdp_printPart_00104
  1369  035a  0a                	ld	a, (bc)
  1370  035b  6f                	ld	l, a
  1371  035c  c5                	push	bc
  1372  035d  d5                	push	de
  1373  035e  cd0000            	call	_vdp_write
  1374  0361  d1                	pop	de
  1375  0362  c1                	pop	bc
  1376  0363  03                	inc	bc
  1377  0364  1800              	jr	l_vdp_printPart_00101
  1378                          l_vdp_printPart_00104:
  1379  0366  dde1              	pop	ix
  1380  0368  c9                	ret
  1381                          	SECTION code_compiler
  1382                          ;	---------------------------------
  1383                          ; Function vdp_newLine
  1384                          ; ---------------------------------
  1385                          _vdp_newLine:
  1386  0369  210000            	ld	hl,_vdp_cursor + 1
  1387  036c  4e                	ld	c, (hl)
  1388  036d  79                	ld	a, c
  1389  036e  d600              	sub	a,0x17
  1390  0370  2000              	jr	NZ,l_vdp_newLine_00104
  1391  0372  3a0000            	ld	a, (__autoScroll+0)
  1392  0375  b7                	or	a, a
  1393  0376  2800              	jr	Z,l_vdp_newLine_00102
  1394  0378  3e00              	ld	a,0x17
  1395  037a  f5                	push	af
  1396  037b  33                	inc	sp
  1397  037c  af                	xor	a, a
  1398  037d  f5                	push	af
  1399  037e  33                	inc	sp
  1400  037f  cd0000            	call	_vdp_scrollTextUp
  1401  0382  33                	inc	sp
  1402  0383  33                	inc	sp
  1403                          l_vdp_newLine_00102:
  1404  0384  210000            	ld	hl,_vdp_cursor
  1405  0387  3600              	ld	(hl),0x00
  1406  0389  1800              	jr	l_vdp_newLine_00106
  1407                          l_vdp_newLine_00104:
  1408  038b  79                	ld	a, c
  1409  038c  3c                	inc	a
  1410  038d  77                	ld	(hl), a
  1411  038e  f5                	push	af
  1412  038f  33                	inc	sp
  1413  0390  af                	xor	a, a
  1414  0391  f5                	push	af
  1415  0392  33                	inc	sp
  1416  0393  cd0000            	call	_vdp_setCursor2
  1417  0396  33                	inc	sp
  1418  0397  33                	inc	sp
  1419                          l_vdp_newLine_00106:
  1420  0398  c9                	ret
  1421                          	SECTION code_compiler
  1422                          ;	---------------------------------
  1423                          ; Function vdp_setBackDropColor
  1424                          ; ---------------------------------
  1425                          _vdp_setBackDropColor:
  1426  0399  45                	ld	b, l
  1427  039a  c5                	push	bc
  1428  039b  33                	inc	sp
  1429  039c  3e00              	ld	a,0x07
  1430  039e  f5                	push	af
  1431  039f  33                	inc	sp
  1432  03a0  cd0000            	call	_vdp_setRegister
  1433  03a3  33                	inc	sp
  1434  03a4  33                	inc	sp
  1435  03a5  c9                	ret
  1436                          	SECTION code_compiler
  1437                          ;	---------------------------------
  1438                          ; Function vdp_setCursor2
  1439                          ; ---------------------------------
  1440                          _vdp_setCursor2:
  1441  03a6  dde5              	push	ix
  1442  03a8  dd210000          	ld	ix,0
  1443  03ac  dd39              	add	ix,sp
  1444  03ae  3a0000            	ld	a,(__vdpCursorMaxX)
  1445  03b1  dd9600            	sub	a,(ix+4)
  1446  03b4  3000              	jr	NC,l_vdp_setCursor2_00102
  1447  03b6  dd360000          	ld	(ix+4),0x00
  1448  03ba  dd3400            	inc	(ix+5)
  1449                          l_vdp_setCursor2_00102:
  1450  03bd  3a0000            	ld	a, (__vdpCursorMaxY+0)
  1451  03c0  dd9600            	sub	a,(ix+5)
  1452  03c3  3000              	jr	NC,l_vdp_setCursor2_00104
  1453  03c5  dd360000          	ld	(ix+5),0x00
  1454                          l_vdp_setCursor2_00104:
  1455  03c9  210000            	ld	hl,_vdp_cursor
  1456  03cc  dd7e00            	ld	a,(ix+4)
  1457  03cf  77                	ld	(hl), a
  1458  03d0  210000            	ld	hl, +(_vdp_cursor + 1)
  1459  03d3  dd7e00            	ld	a,(ix+5)
  1460  03d6  77                	ld	(hl), a
  1461  03d7  dde1              	pop	ix
  1462  03d9  c9                	ret
  1463                          	SECTION code_compiler
  1464                          ;	---------------------------------
  1465                          ; Function vdp_setCursor
  1466                          ; ---------------------------------
  1467                          _vdp_setCursor:
  1468  03da  4d                	ld	c, l
  1469  03db  79                	ld	a, c
  1470  03dc  b7                	or	a, a
  1471  03dd  2800              	jr	Z,l_vdp_setCursor_00101
  1472  03df  79                	ld	a, c
  1473  03e0  3d                	dec	a
  1474  03e1  2800              	jr	Z,l_vdp_setCursor_00102
  1475  03e3  79                	ld	a,c
  1476  03e4  fe00              	cp	a,0x02
  1477  03e6  2800              	jr	Z,l_vdp_setCursor_00103
  1478  03e8  d600              	sub	a,0x03
  1479  03ea  2800              	jr	Z,l_vdp_setCursor_00104
  1480  03ec  1800              	jr	l_vdp_setCursor_00106
  1481                          l_vdp_setCursor_00101:
  1482  03ee  3a0000            	ld	a, (_vdp_cursor + 1)
  1483  03f1  3d                	dec	a
  1484  03f2  210000            	ld	hl,_vdp_cursor + 0
  1485  03f5  46                	ld	b, (hl)
  1486  03f6  f5                	push	af
  1487  03f7  33                	inc	sp
  1488  03f8  c5                	push	bc
  1489  03f9  33                	inc	sp
  1490  03fa  cd0000            	call	_vdp_setCursor2
  1491  03fd  33                	inc	sp
  1492  03fe  33                	inc	sp
  1493  03ff  1800              	jr	l_vdp_setCursor_00106
  1494                          l_vdp_setCursor_00102:
  1495  0401  3a0000            	ld	a, (_vdp_cursor + 1)
  1496  0404  3c                	inc	a
  1497  0405  210000            	ld	hl,_vdp_cursor + 0
  1498  0408  46                	ld	b, (hl)
  1499  0409  f5                	push	af
  1500  040a  33                	inc	sp
  1501  040b  c5                	push	bc
  1502  040c  33                	inc	sp
  1503  040d  cd0000            	call	_vdp_setCursor2
  1504  0410  33                	inc	sp
  1505  0411  33                	inc	sp
  1506  0412  1800              	jr	l_vdp_setCursor_00106
  1507                          l_vdp_setCursor_00103:
  1508  0414  210000            	ld	hl,_vdp_cursor + 1
  1509  0417  46                	ld	b, (hl)
  1510  0418  3a0000            	ld	a, (_vdp_cursor + 0)
  1511  041b  3d                	dec	a
  1512  041c  c5                	push	bc
  1513  041d  33                	inc	sp
  1514  041e  f5                	push	af
  1515  041f  33                	inc	sp
  1516  0420  cd0000            	call	_vdp_setCursor2
  1517  0423  33                	inc	sp
  1518  0424  33                	inc	sp
  1519  0425  1800              	jr	l_vdp_setCursor_00106
  1520                          l_vdp_setCursor_00104:
  1521  0427  210000            	ld	hl,_vdp_cursor + 1
  1522  042a  46                	ld	b, (hl)
  1523  042b  3a0000            	ld	a, (_vdp_cursor + 0)
  1524  042e  3c                	inc	a
  1525  042f  c5                	push	bc
  1526  0430  33                	inc	sp
  1527  0431  f5                	push	af
  1528  0432  33                	inc	sp
  1529  0433  cd0000            	call	_vdp_setCursor2
  1530  0436  33                	inc	sp
  1531  0437  33                	inc	sp
  1532                          l_vdp_setCursor_00106:
  1533  0438  c9                	ret
  1534                          	SECTION code_compiler
  1535                          ;	---------------------------------
  1536                          ; Function vdp_setTextColor
  1537                          ; ---------------------------------
  1538                          _vdp_setTextColor:
  1539  0439  fd210000          	ld	iy,2
  1540  043d  fd39              	add	iy, sp
  1541  043f  fd7e00            	ld	a,(iy+0)
  1542  0442  87                	add	a, a
  1543  0443  87                	add	a, a
  1544  0444  87                	add	a, a
  1545  0445  87                	add	a, a
  1546  0446  fd4e00            	ld	c,(iy+0+1)
  1547  0449  81                	add	a, c
  1548  044a  57                	ld	d,a
  1549  044b  1e00              	ld	e,0x07
  1550  044d  d5                	push	de
  1551  044e  cd0000            	call	_vdp_setRegister
  1552  0451  33                	inc	sp
  1553  0452  33                	inc	sp
  1554  0453  c9                	ret
  1555                          	SECTION code_compiler
  1556                          ;	---------------------------------
  1557                          ; Function vdp_write
  1558                          ; ---------------------------------
  1559                          _vdp_write:
  1560  0454  dde5              	push	ix
  1561  0456  dd210000          	ld	ix,0
  1562  045a  dd39              	add	ix,sp
  1563  045c  3b                	dec	sp
  1564  045d  dd7500            	ld	(ix-1),l
  1565  0460  210000            	ld	hl, +(_vdp_cursor + 1) + 0
  1566  0463  4e                	ld	c, (hl)
  1567  0464  210000            	ld	hl,__vdpCursorMaxXFull + 0
  1568  0467  46                	ld	b, (hl)
  1569  0468  ed4c              	mlt	bc
  1570  046a  3a0000            	ld	a, (_vdp_cursor + 0)
  1571  046d  6f                	ld	l, a
  1572  046e  2600              	ld	h,0x00
  1573  0470  09                	add	hl, bc
  1574  0471  eb                	ex	de, hl
  1575  0472  2a0000            	ld	hl, (__vdpPatternNameTableAddr)
  1576  0475  19                	add	hl, de
  1577  0476  d5                	push	de
  1578  0477  cd0000            	call	_vdp_setWriteAddress
  1579  047a  dd6e00            	ld	l,(ix-1)
  1580  047d  cd0000            	call	_vdp_put
  1581  0480  d1                	pop	de
  1582  0481  210000            	ld	hl,__vdp_textBuffer+0
  1583  0484  19                	add	hl, de
  1584  0485  dd7e00            	ld	a,(ix-1)
  1585  0488  77                	ld	(hl), a
  1586  0489  3a0000            	ld	a, (__autoScroll+0)
  1587  048c  b7                	or	a, a
  1588  048d  2800              	jr	Z,l_vdp_write_00102
  1589  048f  210000            	ld	hl,_vdp_cursor + 0
  1590  0492  46                	ld	b, (hl)
  1591  0493  3a0000            	ld	a, (__vdpCursorMaxX+0)
  1592  0496  90                	sub	a, b
  1593  0497  2000              	jr	NZ,l_vdp_write_00102
  1594  0499  3a0000            	ld	a, ((_vdp_cursor + 1) + 0)
  1595  049c  d600              	sub	a,0x17
  1596  049e  2000              	jr	NZ,l_vdp_write_00102
  1597  04a0  3e00              	ld	a,0x17
  1598  04a2  f5                	push	af
  1599  04a3  33                	inc	sp
  1600  04a4  af                	xor	a, a
  1601  04a5  f5                	push	af
  1602  04a6  33                	inc	sp
  1603  04a7  cd0000            	call	_vdp_scrollTextUp
  1604  04aa  33                	inc	sp
  1605  04ab  33                	inc	sp
  1606  04ac  210000            	ld	hl,_vdp_cursor
  1607  04af  3600              	ld	(hl),0x00
  1608                          l_vdp_write_00102:
  1609  04b1  210000            	ld	hl, +(_vdp_cursor + 1) + 0
  1610  04b4  46                	ld	b, (hl)
  1611  04b5  3a0000            	ld	a, (_vdp_cursor + 0)
  1612  04b8  3c                	inc	a
  1613  04b9  c5                	push	bc
  1614  04ba  33                	inc	sp
  1615  04bb  f5                	push	af
  1616  04bc  33                	inc	sp
  1617  04bd  cd0000            	call	_vdp_setCursor2
  1618  04c0  33                	inc	sp
  1619  04c1  33                	inc	sp
  1620  04c2  33                	inc	sp
  1621  04c3  dde1              	pop	ix
  1622  04c5  c9                	ret
  1623                          	SECTION code_compiler
  1624                          ;	---------------------------------
  1625                          ; Function vdp_writeCharAtLocation
  1626                          ; ---------------------------------
  1627                          _vdp_writeCharAtLocation:
  1628  04c6  dde5              	push	ix
  1629  04c8  dd210000          	ld	ix,0
  1630  04cc  dd39              	add	ix,sp
  1631  04ce  dd4600            	ld	b,(ix+5)
  1632  04d1  210000            	ld	hl,__vdpCursorMaxXFull + 0
  1633  04d4  4e                	ld	c, (hl)
  1634  04d5  ed4c              	mlt	bc
  1635  04d7  dd6e00            	ld	l,(ix+4)
  1636  04da  2600              	ld	h,0x00
  1637  04dc  09                	add	hl, bc
  1638  04dd  eb                	ex	de, hl
  1639  04de  210000            	ld	hl,__vdp_textBuffer+0
  1640  04e1  19                	add	hl, de
  1641  04e2  dd7e00            	ld	a,(ix+6)
  1642  04e5  77                	ld	(hl), a
  1643  04e6  2a0000            	ld	hl, (__vdpPatternNameTableAddr)
  1644  04e9  19                	add	hl, de
  1645  04ea  cd0000            	call	_vdp_setWriteAddress
  1646  04ed  dd6e00            	ld	l,(ix+6)
  1647  04f0  dde1              	pop	ix
  1648  04f2  c30000            	jp	_vdp_put
  1649                          	SECTION code_compiler
  1650                          ;	---------------------------------
  1651                          ; Function vdp_getCharAtLocationVRAM
  1652                          ; ---------------------------------
  1653                          _vdp_getCharAtLocationVRAM:
  1654  04f5  dde5              	push	ix
  1655  04f7  dd210000          	ld	ix,0
  1656  04fb  dd39              	add	ix,sp
  1657  04fd  dd4600            	ld	b,(ix+5)
  1658  0500  210000            	ld	hl,__vdpCursorMaxXFull + 0
  1659  0503  4e                	ld	c, (hl)
  1660  0504  ed4c              	mlt	bc
  1661  0506  dd6e00            	ld	l,(ix+4)
  1662  0509  2600              	ld	h,0x00
  1663  050b  09                	add	hl, bc
  1664  050c  eb                	ex	de, hl
  1665  050d  2a0000            	ld	hl, (__vdpPatternNameTableAddr)
  1666  0510  19                	add	hl, de
  1667  0511  cd0000            	call	_vdp_setReadAddress
  1668  0514  db00              	in	a, (_IO_VDPDATA)
  1669  0516  6f                	ld	l, a
  1670  0517  dde1              	pop	ix
  1671  0519  c9                	ret
  1672                          	SECTION code_compiler
  1673                          ;	---------------------------------
  1674                          ; Function vdp_getCharAtLocationBuf
  1675                          ; ---------------------------------
  1676                          _vdp_getCharAtLocationBuf:
  1677  051a  dde5              	push	ix
  1678  051c  dd210000          	ld	ix,0
  1679  0520  dd39              	add	ix,sp
  1680  0522  dd4600            	ld	b,(ix+5)
  1681  0525  210000            	ld	hl,__vdpCursorMaxXFull + 0
  1682  0528  4e                	ld	c, (hl)
  1683  0529  ed4c              	mlt	bc
  1684  052b  dd6e00            	ld	l,(ix+4)
  1685  052e  2600              	ld	h,0x00
  1686  0530  09                	add	hl, bc
  1687  0531  110000            	ld	de,__vdp_textBuffer
  1688  0534  19                	add	hl, de
  1689  0535  6e                	ld	l, (hl)
  1690  0536  dde1              	pop	ix
  1691  0538  c9                	ret
  1692                          	SECTION code_compiler
  1693                          ;	---------------------------------
  1694                          ; Function vdp_setCharAtLocationBuf
  1695                          ; ---------------------------------
  1696                          _vdp_setCharAtLocationBuf:
  1697  0539  dde5              	push	ix
  1698  053b  dd210000          	ld	ix,0
  1699  053f  dd39              	add	ix,sp
  1700  0541  010000            	ld	bc,__vdp_textBuffer+0
  1701  0544  dd5600            	ld	d,(ix+5)
  1702  0547  210000            	ld	hl,__vdpCursorMaxXFull + 0
  1703  054a  5e                	ld	e, (hl)
  1704  054b  ed5c              	mlt	de
  1705  054d  dd6e00            	ld	l,(ix+4)
  1706  0550  2600              	ld	h,0x00
  1707  0552  19                	add	hl, de
  1708  0553  09                	add	hl, bc
  1709  0554  dd7e00            	ld	a,(ix+6)
  1710  0557  77                	ld	(hl), a
  1711  0558  dde1              	pop	ix
  1712  055a  c9                	ret
  1713                          	SECTION code_compiler
  1714                          ;	---------------------------------
  1715                          ; Function vdp_refreshViewPort
  1716                          ; ---------------------------------
  1717                          _vdp_refreshViewPort:
  1718  055b  210000            	ld	hl, __vdp_textBuffer
  1719  055e  ed5b0000          	ld	de, (__vdpPatternNameTableAddr)
  1720  0562  ed4b0000          	ld	bc, (__vdpTextBufferSize)
  1721  0566  7b                	ld	a,e
  1722  0567  d300              	out	(0x81),a
  1723  0569  7a                	ld	a,d
  1724  056a  f600              	or	0x40
  1725  056c  d300              	out	(0x81),a
  1726  056e  50                	ld	d,b
  1727  056f  59                	ld	e,c
  1728  0570  0e00              	ld	c,0x80
  1729  0572  43                	ld	b,e
  1730  0573  1c                	inc	e
  1731  0574  1d                	dec	e
  1732  0575  2800              	jr	z,vdp_write_loop
  1733  0577  14                	inc	d
  1734                          vdp_write_loop:
  1735  0578  eda3              	outi
  1736  057a  c20000            	jp	nz,vdp_write_loop
  1737  057d  15                	dec	d
  1738  057e  c20000            	jp	nz,vdp_write_loop
  1739  0581  db00              	in	a,(0x81)
  1740  0583  c9                	ret
  1741                          	SECTION code_compiler
  1742                          ;	---------------------------------
  1743                          ; Function vdp_scrollTextUp
  1744                          ; ---------------------------------
  1745                          _vdp_scrollTextUp:
  1746  0584  dde5              	push	ix
  1747  0586  dd210000          	ld	ix,0
  1748  058a  dd39              	add	ix,sp
  1749  058c  3b                	dec	sp
  1750  058d  3b                	dec	sp
  1751  058e  dd4600            	ld	b,(ix+4)
  1752  0591  210000            	ld	hl,__vdpCursorMaxXFull + 0
  1753  0594  4e                	ld	c, (hl)
  1754  0595  ed4c              	mlt	bc
  1755  0597  2a0000            	ld	hl, (__vdpPatternNameTableAddr)
  1756  059a  09                	add	hl, bc
  1757  059b  cd0000            	call	_vdp_setWriteAddress
  1758  059e  dd4600            	ld	b,(ix+4)
  1759  05a1  210000            	ld	hl,__vdpCursorMaxXFull + 0
  1760  05a4  4e                	ld	c, (hl)
  1761  05a5  ed4c              	mlt	bc
  1762  05a7  210000            	ld	hl,__vdp_textBuffer
  1763  05aa  09                	add	hl, bc
  1764  05ab  eb                	ex	de, hl
  1765  05ac  2a0000            	ld	hl, (__vdpCursorMaxXFull)
  1766  05af  2600              	ld	h,0x00
  1767  05b1  19                	add	hl, de
  1768  05b2  e3                	ex	(sp), hl
  1769  05b3  dd4e00            	ld	c,(ix+5)
  1770  05b6  0600              	ld	b,0x00
  1771  05b8  03                	inc	bc
  1772  05b9  3a0000            	ld	a, (__vdpCursorMaxXFull+0)
  1773  05bc  2600              	ld	h,0x00
  1774  05be  d5                	push	de
  1775  05bf  6f                	ld	l, a
  1776  05c0  e5                	push	hl
  1777  05c1  c5                	push	bc
  1778  05c2  cd0000            	call	__mulint
  1779  05c5  33                	inc	sp
  1780  05c6  33                	inc	sp
  1781  05c7  33                	inc	sp
  1782  05c8  33                	inc	sp
  1783  05c9  d1                	pop	de
  1784  05ca  010000            	ld	bc,__vdp_textBuffer
  1785  05cd  09                	add	hl, bc
  1786  05ce  4d                	ld	c, l
  1787  05cf  44                	ld	b, h
  1788  05d0  eb                	ex	de, hl
  1789  05d1  d1                	pop	de
  1790  05d2  d5                	push	de
  1791                          l_vdp_scrollTextUp_00101:
  1792  05d3  1a                	ld	a, (de)
  1793  05d4  dd7700            	ld	(ix-1),a
  1794  05d7  77                	ld	(hl),a
  1795  05d8  e5                	push	hl
  1796  05d9  c5                	push	bc
  1797  05da  d5                	push	de
  1798  05db  dd6e00            	ld	l,(ix-1)
  1799  05de  cd0000            	call	_vdp_put
  1800  05e1  d1                	pop	de
  1801  05e2  c1                	pop	bc
  1802  05e3  e1                	pop	hl
  1803  05e4  23                	inc	hl
  1804  05e5  13                	inc	de
  1805  05e6  7b                	ld	a, e
  1806  05e7  91                	sub	a, c
  1807  05e8  2000              	jr	NZ,l_vdp_scrollTextUp_00101
  1808  05ea  7a                	ld	a, d
  1809  05eb  90                	sub	a, b
  1810  05ec  2000              	jr	NZ,l_vdp_scrollTextUp_00101
  1811  05ee  eb                	ex	de, hl
  1812                          l_vdp_scrollTextUp_00104:
  1813  05ef  3e00              	ld	a,0x20
  1814  05f1  12                	ld	(de), a
  1815  05f2  c5                	push	bc
  1816  05f3  d5                	push	de
  1817  05f4  2e00              	ld	l,0x20
  1818  05f6  cd0000            	call	_vdp_put
  1819  05f9  d1                	pop	de
  1820  05fa  c1                	pop	bc
  1821  05fb  13                	inc	de
  1822  05fc  6b                	ld	l, e
  1823  05fd  62                	ld	h, d
  1824  05fe  bf                	cp	a, a
  1825  05ff  ed42              	sbc	hl, bc
  1826  0601  2000              	jr	NZ,l_vdp_scrollTextUp_00104
  1827  0603  ddf9              	ld	sp, ix
  1828  0605  dde1              	pop	ix
  1829  0607  c9                	ret
  1830                          	SECTION code_compiler
  1831                          ;	---------------------------------
  1832                          ; Function vdp_scrollTextDown
  1833                          ; ---------------------------------
  1834                          _vdp_scrollTextDown:
  1835  0608  dde5              	push	ix
  1836  060a  dd210000          	ld	ix,0
  1837  060e  dd39              	add	ix,sp
  1838  0610  3b                	dec	sp
  1839  0611  3b                	dec	sp
  1840  0612  dd4600            	ld	b,(ix+5)
  1841  0615  fd210000          	ld	iy,__vdpCursorMaxXFull
  1842  0619  fd4e00            	ld	c,(iy+0)
  1843  061c  ed4c              	mlt	bc
  1844  061e  210000            	ld	hl,__vdp_textBuffer
  1845  0621  09                	add	hl, bc
  1846  0622  eb                	ex	de, hl
  1847  0623  1b                	dec	de
  1848  0624  3a0000            	ld	a, (__vdpCursorMaxXFull+0)
  1849  0627  83                	add	a, e
  1850  0628  4f                	ld	c, a
  1851  0629  3e00              	ld	a,0x00
  1852  062b  8a                	adc	a, d
  1853  062c  47                	ld	b, a
  1854  062d  d5                	push	de
  1855  062e  fd6e00            	ld	l,(iy+0)
  1856  0631  dd6600            	ld	h,(ix+4)
  1857  0634  ed6c              	mlt	hl
  1858  0636  d1                	pop	de
  1859  0637  3e00              	ld	a, +((__vdp_textBuffer - 1) & 0xFF)
  1860  0639  85                	add	a, l
  1861  063a  6f                	ld	l, a
  1862  063b  3e00              	ld	a, +((__vdp_textBuffer - 1) / 256)
  1863  063d  8c                	adc	a, h
  1864  063e  67                	ld	h, a
  1865  063f  e3                	ex	(sp), hl
  1866                          l_vdp_scrollTextDown_00101:
  1867  0640  1a                	ld	a, (de)
  1868  0641  02                	ld	(bc), a
  1869  0642  0b                	dec	bc
  1870  0643  1b                	dec	de
  1871  0644  e1                	pop	hl
  1872  0645  e5                	push	hl
  1873  0646  bf                	cp	a, a
  1874  0647  ed52              	sbc	hl, de
  1875  0649  2000              	jr	NZ,l_vdp_scrollTextDown_00101
  1876                          l_vdp_scrollTextDown_00104:
  1877  064b  3e00              	ld	a,0x20
  1878  064d  02                	ld	(bc), a
  1879  064e  0b                	dec	bc
  1880  064f  e1                	pop	hl
  1881  0650  e5                	push	hl
  1882  0651  bf                	cp	a, a
  1883  0652  ed42              	sbc	hl, bc
  1884  0654  2000              	jr	NZ,l_vdp_scrollTextDown_00104
  1885  0656  dd4600            	ld	b,(ix+4)
  1886  0659  210000            	ld	hl,__vdpCursorMaxXFull + 0
  1887  065c  4e                	ld	c, (hl)
  1888  065d  ed4c              	mlt	bc
  1889  065f  2a0000            	ld	hl, (__vdpPatternNameTableAddr)
  1890  0662  09                	add	hl, bc
  1891  0663  cd0000            	call	_vdp_setWriteAddress
  1892  0666  dd4600            	ld	b,(ix+4)
  1893  0669  210000            	ld	hl,__vdpCursorMaxXFull + 0
  1894  066c  4e                	ld	c, (hl)
  1895  066d  ed4c              	mlt	bc
  1896  066f  210000            	ld	hl,__vdp_textBuffer
  1897  0672  09                	add	hl, bc
  1898  0673  eb                	ex	de, hl
  1899  0674  dd4e00            	ld	c,(ix+5)
  1900  0677  0600              	ld	b,0x00
  1901  0679  03                	inc	bc
  1902  067a  3a0000            	ld	a, (__vdpCursorMaxXFull+0)
  1903  067d  2600              	ld	h,0x00
  1904  067f  d5                	push	de
  1905  0680  6f                	ld	l, a
  1906  0681  e5                	push	hl
  1907  0682  c5                	push	bc
  1908  0683  cd0000            	call	__mulint
  1909  0686  33                	inc	sp
  1910  0687  33                	inc	sp
  1911  0688  33                	inc	sp
  1912  0689  33                	inc	sp
  1913  068a  d1                	pop	de
  1914  068b  010000            	ld	bc,__vdp_textBuffer
  1915  068e  09                	add	hl, bc
  1916  068f  4d                	ld	c, l
  1917  0690  44                	ld	b, h
  1918                          l_vdp_scrollTextDown_00107:
  1919  0691  1a                	ld	a, (de)
  1920  0692  6f                	ld	l, a
  1921  0693  c5                	push	bc
  1922  0694  d5                	push	de
  1923  0695  cd0000            	call	_vdp_put
  1924  0698  d1                	pop	de
  1925  0699  c1                	pop	bc
  1926  069a  13                	inc	de
  1927  069b  6b                	ld	l, e
  1928  069c  62                	ld	h, d
  1929  069d  bf                	cp	a, a
  1930  069e  ed42              	sbc	hl, bc
  1931  06a0  2000              	jr	NZ,l_vdp_scrollTextDown_00107
  1932  06a2  ddf9              	ld	sp, ix
  1933  06a4  dde1              	pop	ix
  1934  06a6  c9                	ret
  1935                          	SECTION code_compiler
  1936                          ;	---------------------------------
  1937                          ; Function vdp_put
  1938                          ; ---------------------------------
  1939                          _vdp_put:
  1940  06a7  7d                	ld	a, l
  1941  06a8  d300              	out	(_IO_VDPDATA), a
  1942  06aa  0600              	ld	b, 2
  1943                          TmsRamOutDelay:
  1944  06ac  1000              	djnz	TmsRamOutDelay
  1945  06ae  c9                	ret
  1946                          	SECTION code_compiler
  1947                          ;	---------------------------------
  1948                          ; Function vdp_setPatternColor
  1949                          ; ---------------------------------
  1950                          _vdp_setPatternColor:
  1951  06af  2a0000            	ld	hl, (__vdpColorTableAddr)
  1952  06b2  cd0000            	call	_vdp_setWriteAddress
  1953  06b5  010000            	ld	bc,0x0000
  1954                          l_vdp_setPatternColor_00103:
  1955  06b8  79                	ld	a, c
  1956  06b9  d600              	sub	a,0xff
  1957  06bb  78                	ld	a, b
  1958  06bc  de00              	sbc	a,0x00
  1959  06be  d0                	ret	NC
  1960  06bf  210000            	ld	hl,2+0
  1961  06c2  39                	add	hl, sp
  1962  06c3  7e                	ld	a, (hl)
  1963  06c4  d300              	out	(_IO_VDPDATA), a
  1964  06c6  c5                	push	bc
  1965  06c7  cd0000            	call	_nop
  1966  06ca  cd0000            	call	_nop
  1967  06cd  cd0000            	call	_nop
  1968  06d0  cd0000            	call	_nop
  1969  06d3  c1                	pop	bc
  1970  06d4  03                	inc	bc
  1971  06d5  1800              	jr	l_vdp_setPatternColor_00103
  1972                          	SECTION rodata_compiler
  1973                          _FAT:
  1974  0002  00                	DEFB +0x00
  1975  0003  00                	DEFB +0x00
  1976  0004  00                	DEFB +0x00
  1977  0005  00                	DEFB +0x00
  1978  0006  00                	DEFB +0x00
  1979  0007  00                	DEFB +0x00
  1980  0008  00                	DEFB +0x00
  1981  0009  00                	DEFB +0x00
  1982  000a  00                	DEFB +0x18
  1983  000b  00                	DEFB +0x3c
  1984  000c  00                	DEFB +0x3c
  1985  000d  00                	DEFB +0x7e
  1986  000e  00                	DEFB +0x7e
  1987  000f  00                	DEFB +0x7e
  1988  0010  00                	DEFB +0x3c
  1989  0011  00                	DEFB +0x3c
  1990  0012  00                	DEFB +0x3c
  1991  0013  00                	DEFB +0x3c
  1992  0014  00                	DEFB +0x7e
  1993  0015  00                	DEFB +0x7e
  1994  0016  00                	DEFB +0x7e
  1995  0017  00                	DEFB +0x3c
  1996  0018  00                	DEFB +0x3c
  1997  0019  00                	DEFB +0x18
  1998  001a  00                	DEFB +0x00
  1999  001b  00                	DEFB +0x1c
  2000  001c  00                	DEFB +0x7f
  2001  001d  00                	DEFB +0xff
  2002  001e  00                	DEFB +0xff
  2003  001f  00                	DEFB +0x7f
  2004  0020  00                	DEFB +0x1c
  2005  0021  00                	DEFB +0x00
  2006  0022  00                	DEFB +0x00
  2007  0023  38                	DEFB +0x38
  2008  0024  fe                	DEFB +0xfe
  2009  0025  ff                	DEFB +0xff
  2010  0026  ff                	DEFB +0xff
  2011  0027  fe                	DEFB +0xfe
  2012  0028  38                	DEFB +0x38
  2013  0029  00                	DEFB +0x00
  2014  002a  04                	DEFB +0x04
  2015  002b  68                	DEFB +0x68
  2016  002c  37                	DEFB +0x37
  2017  002d  7f                	DEFB +0x7f
  2018  002e  7f                	DEFB +0x7f
  2019  002f  7f                	DEFB +0x7f
  2020  0030  7f                	DEFB +0x7f
  2021  0031  3e                	DEFB +0x3e
  2022  0032  00                	DEFB +0x00
  2023  0033  00                	DEFB +0x00
  2024  0034  ff                	DEFB +0xff
  2025  0035  ff                	DEFB +0xff
  2026  0036  ff                	DEFB +0xff
  2027  0037  ff                	DEFB +0xff
  2028  0038  3c                	DEFB +0x3c
  2029  0039  3c                	DEFB +0x3c
  2030  003a  3c                	DEFB +0x3c
  2031  003b  3c                	DEFB +0x3c
  2032  003c  ff                	DEFB +0xff
  2033  003d  ff                	DEFB +0xff
  2034  003e  ff                	DEFB +0xff
  2035  003f  ff                	DEFB +0xff
  2036  0040  00                	DEFB +0x00
  2037  0041  00                	DEFB +0x00
  2038  0042  3c                	DEFB +0x3c
  2039  0043  3c                	DEFB +0x3c
  2040  0044  fc                	DEFB +0xfc
  2041  0045  fc                	DEFB +0xfc
  2042  0046  fc                	DEFB +0xfc
  2043  0047  fc                	DEFB +0xfc
  2044  0048  3c                	DEFB +0x3c
  2045  0049  3c                	DEFB +0x3c
  2046  004a  3c                	DEFB +0x3c
  2047  004b  3c                	DEFB +0x3c
  2048  004c  3f                	DEFB +0x3f
  2049  004d  3f                	DEFB +0x3f
  2050  004e  3f                	DEFB +0x3f
  2051  004f  3f                	DEFB +0x3f
  2052  0050  3c                	DEFB +0x3c
  2053  0051  3c                	DEFB +0x3c
  2054  0052  00                	DEFB +0x00
  2055  0053  00                	DEFB +0x00
  2056  0054  ff                	DEFB +0xff
  2057  0055  ff                	DEFB +0xff
  2058  0056  ff                	DEFB +0xff
  2059  0057  ff                	DEFB +0xff
  2060  0058  00                	DEFB +0x00
  2061  0059  00                	DEFB +0x00
  2062  005a  3c                	DEFB +0x3c
  2063  005b  3c                	DEFB +0x3c
  2064  005c  3c                	DEFB +0x3c
  2065  005d  3c                	DEFB +0x3c
  2066  005e  3c                	DEFB +0x3c
  2067  005f  3c                	DEFB +0x3c
  2068  0060  3c                	DEFB +0x3c
  2069  0061  3c                	DEFB +0x3c
  2070  0062  7e                	DEFB +0x7e
  2071  0063  ff                	DEFB +0xff
  2072  0064  c3                	DEFB +0xc3
  2073  0065  db                	DEFB +0xdb
  2074  0066  db                	DEFB +0xdb
  2075  0067  c3                	DEFB +0xc3
  2076  0068  ff                	DEFB +0xff
  2077  0069  7e                	DEFB +0x7e
  2078  006a  00                	DEFB +0x00
  2079  006b  00                	DEFB +0x00
  2080  006c  3f                	DEFB +0x3f
  2081  006d  3f                	DEFB +0x3f
  2082  006e  3f                	DEFB +0x3f
  2083  006f  3f                	DEFB +0x3f
  2084  0070  3c                	DEFB +0x3c
  2085  0071  3c                	DEFB +0x3c
  2086  0072  00                	DEFB +0x00
  2087  0073  00                	DEFB +0x00
  2088  0074  fc                	DEFB +0xfc
  2089  0075  fc                	DEFB +0xfc
  2090  0076  fc                	DEFB +0xfc
  2091  0077  fc                	DEFB +0xfc
  2092  0078  3c                	DEFB +0x3c
  2093  0079  3c                	DEFB +0x3c
  2094  007a  3c                	DEFB +0x3c
  2095  007b  3c                	DEFB +0x3c
  2096  007c  3f                	DEFB +0x3f
  2097  007d  3f                	DEFB +0x3f
  2098  007e  3f                	DEFB +0x3f
  2099  007f  3f                	DEFB +0x3f
  2100  0080  00                	DEFB +0x00
  2101  0081  00                	DEFB +0x00
  2102  0082  3c                	DEFB +0x3c
  2103  0083  3c                	DEFB +0x3c
  2104  0084  fc                	DEFB +0xfc
  2105  0085  fc                	DEFB +0xfc
  2106  0086  fc                	DEFB +0xfc
  2107  0087  fc                	DEFB +0xfc
  2108  0088  00                	DEFB +0x00
  2109  0089  00                	DEFB +0x00
  2110  008a  7e                	DEFB +0x7e
  2111  008b  ff                	DEFB +0xff
  2112  008c  c3                	DEFB +0xc3
  2113  008d  db                	DEFB +0xdb
  2114  008e  db                	DEFB +0xdb
  2115  008f  c3                	DEFB +0xc3
  2116  0090  ff                	DEFB +0xff
  2117  0091  7e                	DEFB +0x7e
  2118  0092  7e                	DEFB +0x7e
  2119  0093  ff                	DEFB +0xff
  2120  0094  c3                	DEFB +0xc3
  2121  0095  db                	DEFB +0xdb
  2122  0096  db                	DEFB +0xdb
  2123  0097  c3                	DEFB +0xc3
  2124  0098  ff                	DEFB +0xff
  2125  0099  7e                	DEFB +0x7e
  2126  009a  7e                	DEFB +0x7e
  2127  009b  ff                	DEFB +0xff
  2128  009c  c3                	DEFB +0xc3
  2129  009d  db                	DEFB +0xdb
  2130  009e  db                	DEFB +0xdb
  2131  009f  c3                	DEFB +0xc3
  2132  00a0  ff                	DEFB +0xff
  2133  00a1  7e                	DEFB +0x7e
  2134  00a2  7e                	DEFB +0x7e
  2135  00a3  ff                	DEFB +0xff
  2136  00a4  c3                	DEFB +0xc3
  2137  00a5  db                	DEFB +0xdb
  2138  00a6  db                	DEFB +0xdb
  2139  00a7  c3                	DEFB +0xc3
  2140  00a8  ff                	DEFB +0xff
  2141  00a9  7e                	DEFB +0x7e
  2142  00aa  7e                	DEFB +0x7e
  2143  00ab  ff                	DEFB +0xff
  2144  00ac  c3                	DEFB +0xc3
  2145  00ad  db                	DEFB +0xdb
  2146  00ae  db                	DEFB +0xdb
  2147  00af  c3                	DEFB +0xc3
  2148  00b0  ff                	DEFB +0xff
  2149  00b1  7e                	DEFB +0x7e
  2150  00b2  7e                	DEFB +0x7e
  2151  00b3  ff                	DEFB +0xff
  2152  00b4  c3                	DEFB +0xc3
  2153  00b5  db                	DEFB +0xdb
  2154  00b6  db                	DEFB +0xdb
  2155  00b7  c3                	DEFB +0xc3
  2156  00b8  ff                	DEFB +0xff
  2157  00b9  7e                	DEFB +0x7e
  2158  00ba  00                	DEFB +0x00
  2159  00bb  00                	DEFB +0x00
  2160  00bc  00                	DEFB +0x00
  2161  00bd  00                	DEFB +0x00
  2162  00be  0f                	DEFB +0x0f
  2163  00bf  0f                	DEFB +0x0f
  2164  00c0  0f                	DEFB +0x0f
  2165  00c1  0f                	DEFB +0x0f
  2166  00c2  00                	DEFB +0x00
  2167  00c3  00                	DEFB +0x00
  2168  00c4  00                	DEFB +0x00
  2169  00c5  00                	DEFB +0x00
  2170  00c6  0f                	DEFB +0x0f
  2171  00c7  0f                	DEFB +0x0f
  2172  00c8  0f                	DEFB +0x0f
  2173  00c9  0f                	DEFB +0x0f
  2174  00ca  00                	DEFB +0x00
  2175  00cb  00                	DEFB +0x00
  2176  00cc  00                	DEFB +0x00
  2177  00cd  00                	DEFB +0x00
  2178  00ce  0f                	DEFB +0x0f
  2179  00cf  0f                	DEFB +0x0f
  2180  00d0  0f                	DEFB +0x0f
  2181  00d1  0f                	DEFB +0x0f
  2182  00d2  00                	DEFB +0x00
  2183  00d3  00                	DEFB +0x00
  2184  00d4  00                	DEFB +0x00
  2185  00d5  00                	DEFB +0x00
  2186  00d6  0f                	DEFB +0x0f
  2187  00d7  0f                	DEFB +0x0f
  2188  00d8  0f                	DEFB +0x0f
  2189  00d9  0f                	DEFB +0x0f
  2190  00da  00                	DEFB +0x00
  2191  00db  00                	DEFB +0x00
  2192  00dc  00                	DEFB +0x00
  2193  00dd  00                	DEFB +0x00
  2194  00de  0f                	DEFB +0x0f
  2195  00df  0f                	DEFB +0x0f
  2196  00e0  0f                	DEFB +0x0f
  2197  00e1  0f                	DEFB +0x0f
  2198  00e2  00                	DEFB +0x00
  2199  00e3  00                	DEFB +0x00
  2200  00e4  00                	DEFB +0x00
  2201  00e5  00                	DEFB +0x00
  2202  00e6  0f                	DEFB +0x0f
  2203  00e7  0f                	DEFB +0x0f
  2204  00e8  0f                	DEFB +0x0f
  2205  00e9  0f                	DEFB +0x0f
  2206  00ea  00                	DEFB +0x00
  2207  00eb  00                	DEFB +0x00
  2208  00ec  00                	DEFB +0x00
  2209  00ed  00                	DEFB +0x00
  2210  00ee  0f                	DEFB +0x0f
  2211  00ef  0f                	DEFB +0x0f
  2212  00f0  0f                	DEFB +0x0f
  2213  00f1  0f                	DEFB +0x0f
  2214  00f2  00                	DEFB +0x00
  2215  00f3  00                	DEFB +0x00
  2216  00f4  00                	DEFB +0x00
  2217  00f5  00                	DEFB +0x00
  2218  00f6  0f                	DEFB +0x0f
  2219  00f7  0f                	DEFB +0x0f
  2220  00f8  0f                	DEFB +0x0f
  2221  00f9  0f                	DEFB +0x0f
  2222  00fa  00                	DEFB +0x00
  2223  00fb  00                	DEFB +0x00
  2224  00fc  00                	DEFB +0x00
  2225  00fd  00                	DEFB +0x00
  2226  00fe  0f                	DEFB +0x0f
  2227  00ff  0f                	DEFB +0x0f
  2228  0100  0f                	DEFB +0x0f
  2229  0101  0f                	DEFB +0x0f
  2230  0102  00                	DEFB +0x00
  2231  0103  00                	DEFB +0x00
  2232  0104  00                	DEFB +0x00
  2233  0105  00                	DEFB +0x00
  2234  0106  00                	DEFB +0x00
  2235  0107  00                	DEFB +0x00
  2236  0108  00                	DEFB +0x00
  2237  0109  00                	DEFB +0x00
  2238  010a  18                	DEFB +0x18
  2239  010b  18                	DEFB +0x18
  2240  010c  18                	DEFB +0x18
  2241  010d  18                	DEFB +0x18
  2242  010e  18                	DEFB +0x18
  2243  010f  00                	DEFB +0x00
  2244  0110  18                	DEFB +0x18
  2245  0111  00                	DEFB +0x00
  2246  0112  6c                	DEFB +0x6c
  2247  0113  6c                	DEFB +0x6c
  2248  0114  00                	DEFB +0x00
  2249  0115  00                	DEFB +0x00
  2250  0116  00                	DEFB +0x00
  2251  0117  00                	DEFB +0x00
  2252  0118  00                	DEFB +0x00
  2253  0119  00                	DEFB +0x00
  2254  011a  6c                	DEFB +0x6c
  2255  011b  6c                	DEFB +0x6c
  2256  011c  fe                	DEFB +0xfe
  2257  011d  6c                	DEFB +0x6c
  2258  011e  fe                	DEFB +0xfe
  2259  011f  6c                	DEFB +0x6c
  2260  0120  6c                	DEFB +0x6c
  2261  0121  00                	DEFB +0x00
  2262  0122  7c                	DEFB +0x7c
  2263  0123  d6                	DEFB +0xd6
  2264  0124  d0                	DEFB +0xd0
  2265  0125  7c                	DEFB +0x7c
  2266  0126  16                	DEFB +0x16
  2267  0127  d6                	DEFB +0xd6
  2268  0128  7c                	DEFB +0x7c
  2269  0129  00                	DEFB +0x00
  2270  012a  c6                	DEFB +0xc6
  2271  012b  ce                	DEFB +0xce
  2272  012c  1c                	DEFB +0x1c
  2273  012d  38                	DEFB +0x38
  2274  012e  70                	DEFB +0x70
  2275  012f  e6                	DEFB +0xe6
  2276  0130  c6                	DEFB +0xc6
  2277  0131  00                	DEFB +0x00
  2278  0132  38                	DEFB +0x38
  2279  0133  6c                	DEFB +0x6c
  2280  0134  6c                	DEFB +0x6c
  2281  0135  30                	DEFB +0x30
  2282  0136  da                	DEFB +0xda
  2283  0137  cc                	DEFB +0xcc
  2284  0138  76                	DEFB +0x76
  2285  0139  00                	DEFB +0x00
  2286  013a  38                	DEFB +0x38
  2287  013b  38                	DEFB +0x38
  2288  013c  18                	DEFB +0x18
  2289  013d  70                	DEFB +0x70
  2290  013e  00                	DEFB +0x00
  2291  013f  00                	DEFB +0x00
  2292  0140  00                	DEFB +0x00
  2293  0141  00                	DEFB +0x00
  2294  0142  18                	DEFB +0x18
  2295  0143  30                	DEFB +0x30
  2296  0144  60                	DEFB +0x60
  2297  0145  60                	DEFB +0x60
  2298  0146  60                	DEFB +0x60
  2299  0147  30                	DEFB +0x30
  2300  0148  18                	DEFB +0x18
  2301  0149  00                	DEFB +0x00
  2302  014a  60                	DEFB +0x60
  2303  014b  30                	DEFB +0x30
  2304  014c  18                	DEFB +0x18
  2305  014d  18                	DEFB +0x18
  2306  014e  18                	DEFB +0x18
  2307  014f  30                	DEFB +0x30
  2308  0150  60                	DEFB +0x60
  2309  0151  00                	DEFB +0x00
  2310  0152  92                	DEFB +0x92
  2311  0153  54                	DEFB +0x54
  2312  0154  38                	DEFB +0x38
  2313  0155  fe                	DEFB +0xfe
  2314  0156  38                	DEFB +0x38
  2315  0157  54                	DEFB +0x54
  2316  0158  92                	DEFB +0x92
  2317  0159  00                	DEFB +0x00
  2318  015a  00                	DEFB +0x00
  2319  015b  18                	DEFB +0x18
  2320  015c  18                	DEFB +0x18
  2321  015d  7e                	DEFB +0x7e
  2322  015e  7e                	DEFB +0x7e
  2323  015f  18                	DEFB +0x18
  2324  0160  18                	DEFB +0x18
  2325  0161  00                	DEFB +0x00
  2326  0162  00                	DEFB +0x00
  2327  0163  00                	DEFB +0x00
  2328  0164  00                	DEFB +0x00
  2329  0165  00                	DEFB +0x00
  2330  0166  38                	DEFB +0x38
  2331  0167  38                	DEFB +0x38
  2332  0168  18                	DEFB +0x18
  2333  0169  70                	DEFB +0x70
  2334  016a  00                	DEFB +0x00
  2335  016b  00                	DEFB +0x00
  2336  016c  00                	DEFB +0x00
  2337  016d  3c                	DEFB +0x3c
  2338  016e  3c                	DEFB +0x3c
  2339  016f  00                	DEFB +0x00
  2340  0170  00                	DEFB +0x00
  2341  0171  00                	DEFB +0x00
  2342  0172  00                	DEFB +0x00
  2343  0173  00                	DEFB +0x00
  2344  0174  00                	DEFB +0x00
  2345  0175  00                	DEFB +0x00
  2346  0176  1c                	DEFB +0x1c
  2347  0177  1c                	DEFB +0x1c
  2348  0178  1c                	DEFB +0x1c
  2349  0179  00                	DEFB +0x00
  2350  017a  06                	DEFB +0x06
  2351  017b  0e                	DEFB +0x0e
  2352  017c  1c                	DEFB +0x1c
  2353  017d  38                	DEFB +0x38
  2354  017e  70                	DEFB +0x70
  2355  017f  e0                	DEFB +0xe0
  2356  0180  c0                	DEFB +0xc0
  2357  0181  00                	DEFB +0x00
  2358  0182  7c                	DEFB +0x7c
  2359  0183  c6                	DEFB +0xc6
  2360  0184  ce                	DEFB +0xce
  2361  0185  fe                	DEFB +0xfe
  2362  0186  f6                	DEFB +0xf6
  2363  0187  c6                	DEFB +0xc6
  2364  0188  7c                	DEFB +0x7c
  2365  0189  00                	DEFB +0x00
  2366  018a  18                	DEFB +0x18
  2367  018b  38                	DEFB +0x38
  2368  018c  18                	DEFB +0x18
  2369  018d  18                	DEFB +0x18
  2370  018e  18                	DEFB +0x18
  2371  018f  18                	DEFB +0x18
  2372  0190  3c                	DEFB +0x3c
  2373  0191  00                	DEFB +0x00
  2374  0192  7c                	DEFB +0x7c
  2375  0193  ce                	DEFB +0xce
  2376  0194  ce                	DEFB +0xce
  2377  0195  1c                	DEFB +0x1c
  2378  0196  38                	DEFB +0x38
  2379  0197  70                	DEFB +0x70
  2380  0198  fe                	DEFB +0xfe
  2381  0199  00                	DEFB +0x00
  2382  019a  7c                	DEFB +0x7c
  2383  019b  c6                	DEFB +0xc6
  2384  019c  06                	DEFB +0x06
  2385  019d  1c                	DEFB +0x1c
  2386  019e  06                	DEFB +0x06
  2387  019f  c6                	DEFB +0xc6
  2388  01a0  7c                	DEFB +0x7c
  2389  01a1  00                	DEFB +0x00
  2390  01a2  0c                	DEFB +0x0c
  2391  01a3  1c                	DEFB +0x1c
  2392  01a4  3c                	DEFB +0x3c
  2393  01a5  6c                	DEFB +0x6c
  2394  01a6  cc                	DEFB +0xcc
  2395  01a7  fe                	DEFB +0xfe
  2396  01a8  0c                	DEFB +0x0c
  2397  01a9  00                	DEFB +0x00
  2398  01aa  fe                	DEFB +0xfe
  2399  01ab  c0                	DEFB +0xc0
  2400  01ac  fc                	DEFB +0xfc
  2401  01ad  c6                	DEFB +0xc6
  2402  01ae  06                	DEFB +0x06
  2403  01af  c6                	DEFB +0xc6
  2404  01b0  7c                	DEFB +0x7c
  2405  01b1  00                	DEFB +0x00
  2406  01b2  7c                	DEFB +0x7c
  2407  01b3  c6                	DEFB +0xc6
  2408  01b4  c0                	DEFB +0xc0
  2409  01b5  fc                	DEFB +0xfc
  2410  01b6  c6                	DEFB +0xc6
  2411  01b7  c6                	DEFB +0xc6
  2412  01b8  7c                	DEFB +0x7c
  2413  01b9  00                	DEFB +0x00
  2414  01ba  fe                	DEFB +0xfe
  2415  01bb  ce                	DEFB +0xce
  2416  01bc  0c                	DEFB +0x0c
  2417  01bd  18                	DEFB +0x18
  2418  01be  38                	DEFB +0x38
  2419  01bf  38                	DEFB +0x38
  2420  01c0  38                	DEFB +0x38
  2421  01c1  00                	DEFB +0x00
  2422  01c2  7c                	DEFB +0x7c
  2423  01c3  c6                	DEFB +0xc6
  2424  01c4  c6                	DEFB +0xc6
  2425  01c5  7c                	DEFB +0x7c
  2426  01c6  c6                	DEFB +0xc6
  2427  01c7  c6                	DEFB +0xc6
  2428  01c8  7c                	DEFB +0x7c
  2429  01c9  00                	DEFB +0x00
  2430  01ca  7c                	DEFB +0x7c
  2431  01cb  c6                	DEFB +0xc6
  2432  01cc  c6                	DEFB +0xc6
  2433  01cd  7e                	DEFB +0x7e
  2434  01ce  06                	DEFB +0x06
  2435  01cf  c6                	DEFB +0xc6
  2436  01d0  7c                	DEFB +0x7c
  2437  01d1  00                	DEFB +0x00
  2438  01d2  38                	DEFB +0x38
  2439  01d3  38                	DEFB +0x38
  2440  01d4  38                	DEFB +0x38
  2441  01d5  00                	DEFB +0x00
  2442  01d6  38                	DEFB +0x38
  2443  01d7  38                	DEFB +0x38
  2444  01d8  38                	DEFB +0x38
  2445  01d9  00                	DEFB +0x00
  2446  01da  38                	DEFB +0x38
  2447  01db  38                	DEFB +0x38
  2448  01dc  38                	DEFB +0x38
  2449  01dd  00                	DEFB +0x00
  2450  01de  38                	DEFB +0x38
  2451  01df  18                	DEFB +0x18
  2452  01e0  18                	DEFB +0x18
  2453  01e1  00                	DEFB +0x00
  2454  01e2  0c                	DEFB +0x0c
  2455  01e3  18                	DEFB +0x18
  2456  01e4  30                	DEFB +0x30
  2457  01e5  60                	DEFB +0x60
  2458  01e6  30                	DEFB +0x30
  2459  01e7  18                	DEFB +0x18
  2460  01e8  0c                	DEFB +0x0c
  2461  01e9  00                	DEFB +0x00
  2462  01ea  00                	DEFB +0x00
  2463  01eb  7c                	DEFB +0x7c
  2464  01ec  7c                	DEFB +0x7c
  2465  01ed  00                	DEFB +0x00
  2466  01ee  7c                	DEFB +0x7c
  2467  01ef  7c                	DEFB +0x7c
  2468  01f0  00                	DEFB +0x00
  2469  01f1  00                	DEFB +0x00
  2470  01f2  60                	DEFB +0x60
  2471  01f3  30                	DEFB +0x30
  2472  01f4  18                	DEFB +0x18
  2473  01f5  0c                	DEFB +0x0c
  2474  01f6  18                	DEFB +0x18
  2475  01f7  30                	DEFB +0x30
  2476  01f8  60                	DEFB +0x60
  2477  01f9  00                	DEFB +0x00
  2478  01fa  7c                	DEFB +0x7c
  2479  01fb  c6                	DEFB +0xc6
  2480  01fc  cc                	DEFB +0xcc
  2481  01fd  18                	DEFB +0x18
  2482  01fe  18                	DEFB +0x18
  2483  01ff  00                	DEFB +0x00
  2484  0200  18                	DEFB +0x18
  2485  0201  00                	DEFB +0x00
  2486  0202  7c                	DEFB +0x7c
  2487  0203  82                	DEFB +0x82
  2488  0204  ba                	DEFB +0xba
  2489  0205  8a                	DEFB +0x8a
  2490  0206  ba                	DEFB +0xba
  2491  0207  aa                	DEFB +0xaa
  2492  0208  94                	DEFB +0x94
  2493  0209  00                	DEFB +0x00
  2494  020a  38                	DEFB +0x38
  2495  020b  6c                	DEFB +0x6c
  2496  020c  c6                	DEFB +0xc6
  2497  020d  c6                	DEFB +0xc6
  2498  020e  fe                	DEFB +0xfe
  2499  020f  c6                	DEFB +0xc6
  2500  0210  c6                	DEFB +0xc6
  2501  0211  00                	DEFB +0x00
  2502  0212  fc                	DEFB +0xfc
  2503  0213  c6                	DEFB +0xc6
  2504  0214  c6                	DEFB +0xc6
  2505  0215  fc                	DEFB +0xfc
  2506  0216  c6                	DEFB +0xc6
  2507  0217  c6                	DEFB +0xc6
  2508  0218  fc                	DEFB +0xfc
  2509  0219  00                	DEFB +0x00
  2510  021a  7c                	DEFB +0x7c
  2511  021b  c6                	DEFB +0xc6
  2512  021c  c0                	DEFB +0xc0
  2513  021d  c0                	DEFB +0xc0
  2514  021e  c0                	DEFB +0xc0
  2515  021f  c6                	DEFB +0xc6
  2516  0220  7c                	DEFB +0x7c
  2517  0221  00                	DEFB +0x00
  2518  0222  f8                	DEFB +0xf8
  2519  0223  cc                	DEFB +0xcc
  2520  0224  c6                	DEFB +0xc6
  2521  0225  c6                	DEFB +0xc6
  2522  0226  c6                	DEFB +0xc6
  2523  0227  cc                	DEFB +0xcc
  2524  0228  f8                	DEFB +0xf8
  2525  0229  00                	DEFB +0x00
  2526  022a  fe                	DEFB +0xfe
  2527  022b  c0                	DEFB +0xc0
  2528  022c  c0                	DEFB +0xc0
  2529  022d  f8                	DEFB +0xf8
  2530  022e  c0                	DEFB +0xc0
  2531  022f  c0                	DEFB +0xc0
  2532  0230  fe                	DEFB +0xfe
  2533  0231  00                	DEFB +0x00
  2534  0232  fe                	DEFB +0xfe
  2535  0233  c0                	DEFB +0xc0
  2536  0234  c0                	DEFB +0xc0
  2537  0235  f8                	DEFB +0xf8
  2538  0236  c0                	DEFB +0xc0
  2539  0237  c0                	DEFB +0xc0
  2540  0238  c0                	DEFB +0xc0
  2541  0239  00                	DEFB +0x00
  2542  023a  7c                	DEFB +0x7c
  2543  023b  c6                	DEFB +0xc6
  2544  023c  c0                	DEFB +0xc0
  2545  023d  c0                	DEFB +0xc0
  2546  023e  ce                	DEFB +0xce
  2547  023f  c6                	DEFB +0xc6
  2548  0240  7e                	DEFB +0x7e
  2549  0241  00                	DEFB +0x00
  2550  0242  c6                	DEFB +0xc6
  2551  0243  c6                	DEFB +0xc6
  2552  0244  c6                	DEFB +0xc6
  2553  0245  fe                	DEFB +0xfe
  2554  0246  c6                	DEFB +0xc6
  2555  0247  c6                	DEFB +0xc6
  2556  0248  c6                	DEFB +0xc6
  2557  0249  00                	DEFB +0x00
  2558  024a  3c                	DEFB +0x3c
  2559  024b  18                	DEFB +0x18
  2560  024c  18                	DEFB +0x18
  2561  024d  18                	DEFB +0x18
  2562  024e  18                	DEFB +0x18
  2563  024f  18                	DEFB +0x18
  2564  0250  3c                	DEFB +0x3c
  2565  0251  00                	DEFB +0x00
  2566  0252  1e                	DEFB +0x1e
  2567  0253  0c                	DEFB +0x0c
  2568  0254  0c                	DEFB +0x0c
  2569  0255  0c                	DEFB +0x0c
  2570  0256  cc                	DEFB +0xcc
  2571  0257  cc                	DEFB +0xcc
  2572  0258  78                	DEFB +0x78
  2573  0259  00                	DEFB +0x00
  2574  025a  c6                	DEFB +0xc6
  2575  025b  cc                	DEFB +0xcc
  2576  025c  d8                	DEFB +0xd8
  2577  025d  f0                	DEFB +0xf0
  2578  025e  d8                	DEFB +0xd8
  2579  025f  cc                	DEFB +0xcc
  2580  0260  c6                	DEFB +0xc6
  2581  0261  00                	DEFB +0x00
  2582  0262  c0                	DEFB +0xc0
  2583  0263  c0                	DEFB +0xc0
  2584  0264  c0                	DEFB +0xc0
  2585  0265  c0                	DEFB +0xc0
  2586  0266  c0                	DEFB +0xc0
  2587  0267  c0                	DEFB +0xc0
  2588  0268  fe                	DEFB +0xfe
  2589  0269  00                	DEFB +0x00
  2590  026a  c6                	DEFB +0xc6
  2591  026b  fe                	DEFB +0xfe
  2592  026c  fe                	DEFB +0xfe
  2593  026d  d6                	DEFB +0xd6
  2594  026e  c6                	DEFB +0xc6
  2595  026f  c6                	DEFB +0xc6
  2596  0270  c6                	DEFB +0xc6
  2597  0271  00                	DEFB +0x00
  2598  0272  e6                	DEFB +0xe6
  2599  0273  e6                	DEFB +0xe6
  2600  0274  f6                	DEFB +0xf6
  2601  0275  d6                	DEFB +0xd6
  2602  0276  de                	DEFB +0xde
  2603  0277  ce                	DEFB +0xce
  2604  0278  ce                	DEFB +0xce
  2605  0279  00                	DEFB +0x00
  2606  027a  7c                	DEFB +0x7c
  2607  027b  c6                	DEFB +0xc6
  2608  027c  c6                	DEFB +0xc6
  2609  027d  c6                	DEFB +0xc6
  2610  027e  c6                	DEFB +0xc6
  2611  027f  c6                	DEFB +0xc6
  2612  0280  7c                	DEFB +0x7c
  2613  0281  00                	DEFB +0x00
  2614  0282  fc                	DEFB +0xfc
  2615  0283  c6                	DEFB +0xc6
  2616  0284  c6                	DEFB +0xc6
  2617  0285  fc                	DEFB +0xfc
  2618  0286  c0                	DEFB +0xc0
  2619  0287  c0                	DEFB +0xc0
  2620  0288  c0                	DEFB +0xc0
  2621  0289  00                	DEFB +0x00
  2622  028a  7c                	DEFB +0x7c
  2623  028b  c6                	DEFB +0xc6
  2624  028c  c6                	DEFB +0xc6
  2625  028d  c6                	DEFB +0xc6
  2626  028e  de                	DEFB +0xde
  2627  028f  cc                	DEFB +0xcc
  2628  0290  7e                	DEFB +0x7e
  2629  0291  00                	DEFB +0x00
  2630  0292  fc                	DEFB +0xfc
  2631  0293  c6                	DEFB +0xc6
  2632  0294  c6                	DEFB +0xc6
  2633  0295  fc                	DEFB +0xfc
  2634  0296  d8                	DEFB +0xd8
  2635  0297  cc                	DEFB +0xcc
  2636  0298  c6                	DEFB +0xc6
  2637  0299  00                	DEFB +0x00
  2638  029a  7c                	DEFB +0x7c
  2639  029b  c6                	DEFB +0xc6
  2640  029c  c0                	DEFB +0xc0
  2641  029d  7c                	DEFB +0x7c
  2642  029e  06                	DEFB +0x06
  2643  029f  c6                	DEFB +0xc6
  2644  02a0  7c                	DEFB +0x7c
  2645  02a1  00                	DEFB +0x00
  2646  02a2  7e                	DEFB +0x7e
  2647  02a3  18                	DEFB +0x18
  2648  02a4  18                	DEFB +0x18
  2649  02a5  18                	DEFB +0x18
  2650  02a6  18                	DEFB +0x18
  2651  02a7  18                	DEFB +0x18
  2652  02a8  18                	DEFB +0x18
  2653  02a9  00                	DEFB +0x00
  2654  02aa  c6                	DEFB +0xc6
  2655  02ab  c6                	DEFB +0xc6
  2656  02ac  c6                	DEFB +0xc6
  2657  02ad  c6                	DEFB +0xc6
  2658  02ae  c6                	DEFB +0xc6
  2659  02af  c6                	DEFB +0xc6
  2660  02b0  7c                	DEFB +0x7c
  2661  02b1  00                	DEFB +0x00
  2662  02b2  c6                	DEFB +0xc6
  2663  02b3  c6                	DEFB +0xc6
  2664  02b4  c6                	DEFB +0xc6
  2665  02b5  6c                	DEFB +0x6c
  2666  02b6  6c                	DEFB +0x6c
  2667  02b7  38                	DEFB +0x38
  2668  02b8  38                	DEFB +0x38
  2669  02b9  00                	DEFB +0x00
  2670  02ba  c6                	DEFB +0xc6
  2671  02bb  c6                	DEFB +0xc6
  2672  02bc  c6                	DEFB +0xc6
  2673  02bd  d6                	DEFB +0xd6
  2674  02be  d6                	DEFB +0xd6
  2675  02bf  fe                	DEFB +0xfe
  2676  02c0  6c                	DEFB +0x6c
  2677  02c1  00                	DEFB +0x00
  2678  02c2  c6                	DEFB +0xc6
  2679  02c3  c6                	DEFB +0xc6
  2680  02c4  6c                	DEFB +0x6c
  2681  02c5  38                	DEFB +0x38
  2682  02c6  6c                	DEFB +0x6c
  2683  02c7  c6                	DEFB +0xc6
  2684  02c8  c6                	DEFB +0xc6
  2685  02c9  00                	DEFB +0x00
  2686  02ca  66                	DEFB +0x66
  2687  02cb  66                	DEFB +0x66
  2688  02cc  66                	DEFB +0x66
  2689  02cd  3c                	DEFB +0x3c
  2690  02ce  18                	DEFB +0x18
  2691  02cf  18                	DEFB +0x18
  2692  02d0  18                	DEFB +0x18
  2693  02d1  00                	DEFB +0x00
  2694  02d2  fe                	DEFB +0xfe
  2695  02d3  0e                	DEFB +0x0e
  2696  02d4  1c                	DEFB +0x1c
  2697  02d5  38                	DEFB +0x38
  2698  02d6  70                	DEFB +0x70
  2699  02d7  e0                	DEFB +0xe0
  2700  02d8  fe                	DEFB +0xfe
  2701  02d9  00                	DEFB +0x00
  2702  02da  78                	DEFB +0x78
  2703  02db  60                	DEFB +0x60
  2704  02dc  60                	DEFB +0x60
  2705  02dd  60                	DEFB +0x60
  2706  02de  60                	DEFB +0x60
  2707  02df  60                	DEFB +0x60
  2708  02e0  78                	DEFB +0x78
  2709  02e1  00                	DEFB +0x00
  2710  02e2  3c                	DEFB +0x3c
  2711  02e3  42                	DEFB +0x42
  2712  02e4  99                	DEFB +0x99
  2713  02e5  a1                	DEFB +0xa1
  2714  02e6  a1                	DEFB +0xa1
  2715  02e7  99                	DEFB +0x99
  2716  02e8  42                	DEFB +0x42
  2717  02e9  3c                	DEFB +0x3c
  2718  02ea  78                	DEFB +0x78
  2719  02eb  18                	DEFB +0x18
  2720  02ec  18                	DEFB +0x18
  2721  02ed  18                	DEFB +0x18
  2722  02ee  18                	DEFB +0x18
  2723  02ef  18                	DEFB +0x18
  2724  02f0  78                	DEFB +0x78
  2725  02f1  00                	DEFB +0x00
  2726  02f2  38                	DEFB +0x38
  2727  02f3  6c                	DEFB +0x6c
  2728  02f4  c6                	DEFB +0xc6
  2729  02f5  00                	DEFB +0x00
  2730  02f6  00                	DEFB +0x00
  2731  02f7  00                	DEFB +0x00
  2732  02f8  00                	DEFB +0x00
  2733  02f9  00                	DEFB +0x00
  2734  02fa  00                	DEFB +0x00
  2735  02fb  00                	DEFB +0x00
  2736  02fc  00                	DEFB +0x00
  2737  02fd  00                	DEFB +0x00
  2738  02fe  00                	DEFB +0x00
  2739  02ff  00                	DEFB +0x00
  2740  0300  7e                	DEFB +0x7e
  2741  0301  7e                	DEFB +0x7e
  2742  0302  15                	DEFB +0x15
  2743  0303  35                	DEFB +0x35
  2744  0304  75                	DEFB +0x75
  2745  0305  f5                	DEFB +0xf5
  2746  0306  75                	DEFB +0x75
  2747  0307  35                	DEFB +0x35
  2748  0308  15                	DEFB +0x15
  2749  0309  00                	DEFB +0x00
  2750  030a  00                	DEFB +0x00
  2751  030b  00                	DEFB +0x00
  2752  030c  3c                	DEFB +0x3c
  2753  030d  06                	DEFB +0x06
  2754  030e  3e                	DEFB +0x3e
  2755  030f  66                	DEFB +0x66
  2756  0310  3e                	DEFB +0x3e
  2757  0311  00                	DEFB +0x00
  2758  0312  60                	DEFB +0x60
  2759  0313  60                	DEFB +0x60
  2760  0314  7c                	DEFB +0x7c
  2761  0315  66                	DEFB +0x66
  2762  0316  66                	DEFB +0x66
  2763  0317  66                	DEFB +0x66
  2764  0318  7c                	DEFB +0x7c
  2765  0319  00                	DEFB +0x00
  2766  031a  00                	DEFB +0x00
  2767  031b  00                	DEFB +0x00
  2768  031c  3c                	DEFB +0x3c
  2769  031d  66                	DEFB +0x66
  2770  031e  60                	DEFB +0x60
  2771  031f  66                	DEFB +0x66
  2772  0320  3c                	DEFB +0x3c
  2773  0321  00                	DEFB +0x00
  2774  0322  06                	DEFB +0x06
  2775  0323  06                	DEFB +0x06
  2776  0324  3e                	DEFB +0x3e
  2777  0325  66                	DEFB +0x66
  2778  0326  66                	DEFB +0x66
  2779  0327  66                	DEFB +0x66
  2780  0328  3e                	DEFB +0x3e
  2781  0329  00                	DEFB +0x00
  2782  032a  00                	DEFB +0x00
  2783  032b  00                	DEFB +0x00
  2784  032c  3c                	DEFB +0x3c
  2785  032d  66                	DEFB +0x66
  2786  032e  7e                	DEFB +0x7e
  2787  032f  60                	DEFB +0x60
  2788  0330  3e                	DEFB +0x3e
  2789  0331  00                	DEFB +0x00
  2790  0332  1c                	DEFB +0x1c
  2791  0333  36                	DEFB +0x36
  2792  0334  30                	DEFB +0x30
  2793  0335  78                	DEFB +0x78
  2794  0336  30                	DEFB +0x30
  2795  0337  30                	DEFB +0x30
  2796  0338  30                	DEFB +0x30
  2797  0339  00                	DEFB +0x00
  2798  033a  00                	DEFB +0x00
  2799  033b  00                	DEFB +0x00
  2800  033c  3e                	DEFB +0x3e
  2801  033d  66                	DEFB +0x66
  2802  033e  3e                	DEFB +0x3e
  2803  033f  06                	DEFB +0x06
  2804  0340  66                	DEFB +0x66
  2805  0341  3c                	DEFB +0x3c
  2806  0342  60                	DEFB +0x60
  2807  0343  60                	DEFB +0x60
  2808  0344  7c                	DEFB +0x7c
  2809  0345  66                	DEFB +0x66
  2810  0346  66                	DEFB +0x66
  2811  0347  66                	DEFB +0x66
  2812  0348  66                	DEFB +0x66
  2813  0349  00                	DEFB +0x00
  2814  034a  18                	DEFB +0x18
  2815  034b  00                	DEFB +0x00
  2816  034c  18                	DEFB +0x18
  2817  034d  18                	DEFB +0x18
  2818  034e  18                	DEFB +0x18
  2819  034f  18                	DEFB +0x18
  2820  0350  18                	DEFB +0x18
  2821  0351  00                	DEFB +0x00
  2822  0352  06                	DEFB +0x06
  2823  0353  00                	DEFB +0x00
  2824  0354  06                	DEFB +0x06
  2825  0355  06                	DEFB +0x06
  2826  0356  06                	DEFB +0x06
  2827  0357  06                	DEFB +0x06
  2828  0358  66                	DEFB +0x66
  2829  0359  3c                	DEFB +0x3c
  2830  035a  60                	DEFB +0x60
  2831  035b  60                	DEFB +0x60
  2832  035c  66                	DEFB +0x66
  2833  035d  6c                	DEFB +0x6c
  2834  035e  78                	DEFB +0x78
  2835  035f  6c                	DEFB +0x6c
  2836  0360  66                	DEFB +0x66
  2837  0361  00                	DEFB +0x00
  2838  0362  18                	DEFB +0x18
  2839  0363  18                	DEFB +0x18
  2840  0364  18                	DEFB +0x18
  2841  0365  18                	DEFB +0x18
  2842  0366  18                	DEFB +0x18
  2843  0367  18                	DEFB +0x18
  2844  0368  18                	DEFB +0x18
  2845  0369  00                	DEFB +0x00
  2846  036a  00                	DEFB +0x00
  2847  036b  00                	DEFB +0x00
  2848  036c  6c                	DEFB +0x6c
  2849  036d  fe                	DEFB +0xfe
  2850  036e  d6                	DEFB +0xd6
  2851  036f  d6                	DEFB +0xd6
  2852  0370  d6                	DEFB +0xd6
  2853  0371  00                	DEFB +0x00
  2854  0372  00                	DEFB +0x00
  2855  0373  00                	DEFB +0x00
  2856  0374  5c                	DEFB +0x5c
  2857  0375  7e                	DEFB +0x7e
  2858  0376  66                	DEFB +0x66
  2859  0377  66                	DEFB +0x66
  2860  0378  66                	DEFB +0x66
  2861  0379  00                	DEFB +0x00
  2862  037a  00                	DEFB +0x00
  2863  037b  00                	DEFB +0x00
  2864  037c  7c                	DEFB +0x7c
  2865  037d  c6                	DEFB +0xc6
  2866  037e  c6                	DEFB +0xc6
  2867  037f  c6                	DEFB +0xc6
  2868  0380  7c                	DEFB +0x7c
  2869  0381  00                	DEFB +0x00
  2870  0382  00                	DEFB +0x00
  2871  0383  00                	DEFB +0x00
  2872  0384  7c                	DEFB +0x7c
  2873  0385  66                	DEFB +0x66
  2874  0386  66                	DEFB +0x66
  2875  0387  7c                	DEFB +0x7c
  2876  0388  60                	DEFB +0x60
  2877  0389  60                	DEFB +0x60
  2878  038a  00                	DEFB +0x00
  2879  038b  00                	DEFB +0x00
  2880  038c  7c                	DEFB +0x7c
  2881  038d  cc                	DEFB +0xcc
  2882  038e  cc                	DEFB +0xcc
  2883  038f  7c                	DEFB +0x7c
  2884  0390  0c                	DEFB +0x0c
  2885  0391  0e                	DEFB +0x0e
  2886  0392  00                	DEFB +0x00
  2887  0393  00                	DEFB +0x00
  2888  0394  6c                	DEFB +0x6c
  2889  0395  76                	DEFB +0x76
  2890  0396  60                	DEFB +0x60
  2891  0397  60                	DEFB +0x60
  2892  0398  60                	DEFB +0x60
  2893  0399  00                	DEFB +0x00
  2894  039a  00                	DEFB +0x00
  2895  039b  00                	DEFB +0x00
  2896  039c  3c                	DEFB +0x3c
  2897  039d  60                	DEFB +0x60
  2898  039e  38                	DEFB +0x38
  2899  039f  0c                	DEFB +0x0c
  2900  03a0  78                	DEFB +0x78
  2901  03a1  00                	DEFB +0x00
  2902  03a2  18                	DEFB +0x18
  2903  03a3  18                	DEFB +0x18
  2904  03a4  3c                	DEFB +0x3c
  2905  03a5  18                	DEFB +0x18
  2906  03a6  18                	DEFB +0x18
  2907  03a7  18                	DEFB +0x18
  2908  03a8  18                	DEFB +0x18
  2909  03a9  00                	DEFB +0x00
  2910  03aa  00                	DEFB +0x00
  2911  03ab  00                	DEFB +0x00
  2912  03ac  66                	DEFB +0x66
  2913  03ad  66                	DEFB +0x66
  2914  03ae  66                	DEFB +0x66
  2915  03af  66                	DEFB +0x66
  2916  03b0  3c                	DEFB +0x3c
  2917  03b1  00                	DEFB +0x00
  2918  03b2  00                	DEFB +0x00
  2919  03b3  00                	DEFB +0x00
  2920  03b4  66                	DEFB +0x66
  2921  03b5  66                	DEFB +0x66
  2922  03b6  66                	DEFB +0x66
  2923  03b7  3c                	DEFB +0x3c
  2924  03b8  18                	DEFB +0x18
  2925  03b9  00                	DEFB +0x00
  2926  03ba  00                	DEFB +0x00
  2927  03bb  00                	DEFB +0x00
  2928  03bc  c6                	DEFB +0xc6
  2929  03bd  c6                	DEFB +0xc6
  2930  03be  d6                	DEFB +0xd6
  2931  03bf  fe                	DEFB +0xfe
  2932  03c0  6c                	DEFB +0x6c
  2933  03c1  00                	DEFB +0x00
  2934  03c2  00                	DEFB +0x00
  2935  03c3  00                	DEFB +0x00
  2936  03c4  c6                	DEFB +0xc6
  2937  03c5  6c                	DEFB +0x6c
  2938  03c6  38                	DEFB +0x38
  2939  03c7  6c                	DEFB +0x6c
  2940  03c8  c6                	DEFB +0xc6
  2941  03c9  00                	DEFB +0x00
  2942  03ca  00                	DEFB +0x00
  2943  03cb  00                	DEFB +0x00
  2944  03cc  66                	DEFB +0x66
  2945  03cd  66                	DEFB +0x66
  2946  03ce  66                	DEFB +0x66
  2947  03cf  3c                	DEFB +0x3c
  2948  03d0  18                	DEFB +0x18
  2949  03d1  70                	DEFB +0x70
  2950  03d2  00                	DEFB +0x00
  2951  03d3  00                	DEFB +0x00
  2952  03d4  7e                	DEFB +0x7e
  2953  03d5  0c                	DEFB +0x0c
  2954  03d6  18                	DEFB +0x18
  2955  03d7  30                	DEFB +0x30
  2956  03d8  7e                	DEFB +0x7e
  2957  03d9  00                	DEFB +0x00
  2958  03da  18                	DEFB +0x18
  2959  03db  30                	DEFB +0x30
  2960  03dc  30                	DEFB +0x30
  2961  03dd  70                	DEFB +0x70
  2962  03de  30                	DEFB +0x30
  2963  03df  30                	DEFB +0x30
  2964  03e0  18                	DEFB +0x18
  2965  03e1  00                	DEFB +0x00
  2966  03e2  18                	DEFB +0x18
  2967  03e3  18                	DEFB +0x18
  2968  03e4  18                	DEFB +0x18
  2969  03e5  18                	DEFB +0x18
  2970  03e6  18                	DEFB +0x18
  2971  03e7  18                	DEFB +0x18
  2972  03e8  18                	DEFB +0x18
  2973  03e9  00                	DEFB +0x00
  2974  03ea  60                	DEFB +0x60
  2975  03eb  30                	DEFB +0x30
  2976  03ec  30                	DEFB +0x30
  2977  03ed  38                	DEFB +0x38
  2978  03ee  30                	DEFB +0x30
  2979  03ef  30                	DEFB +0x30
  2980  03f0  60                	DEFB +0x60
  2981  03f1  00                	DEFB +0x00
  2982  03f2  a8                	DEFB +0xa8
  2983  03f3  ac                	DEFB +0xac
  2984  03f4  ae                	DEFB +0xae
  2985  03f5  af                	DEFB +0xaf
  2986  03f6  ae                	DEFB +0xae
  2987  03f7  ac                	DEFB +0xac
  2988  03f8  a8                	DEFB +0xa8
  2989  03f9  00                	DEFB +0x00
  2990  03fa  00                	DEFB +0x00
  2991  03fb  00                	DEFB +0x00
  2992  03fc  00                	DEFB +0x00
  2993  03fd  00                	DEFB +0x00
  2994  03fe  00                	DEFB +0x00
  2995  03ff  00                	DEFB +0x00
  2996  0400  00                	DEFB +0x00
  2997  0401  00                	DEFB +0x00
  2998                          	SECTION code_compiler
  2999                          ;	---------------------------------
  3000                          ; Function printAtLocationBuf
  3001                          ; ---------------------------------
  3002                          _printAtLocationBuf:
  3003  06d7  dde5              	push	ix
  3004  06d9  dd210000          	ld	ix,0
  3005  06dd  dd39              	add	ix,sp
  3006  06df  3b                	dec	sp
  3007  06e0  dd4600            	ld	b,(ix+5)
  3008  06e3  210000            	ld	hl,__vdpCursorMaxXFull + 0
  3009  06e6  4e                	ld	c, (hl)
  3010  06e7  ed4c              	mlt	bc
  3011  06e9  dd6e00            	ld	l,(ix+4)
  3012  06ec  2600              	ld	h,0x00
  3013  06ee  09                	add	hl, bc
  3014  06ef  eb                	ex	de, hl
  3015  06f0  dd4e00            	ld	c,(ix+6)
  3016  06f3  dd4600            	ld	b,(ix+7)
  3017                          l_printAtLocationBuf_00101:
  3018  06f6  0a                	ld	a, (bc)
  3019  06f7  dd7700            	ld	(ix-1),a
  3020  06fa  b7                	or	a, a
  3021  06fb  2800              	jr	Z,l_printAtLocationBuf_00104
  3022  06fd  210000            	ld	hl,__vdp_textBuffer+0
  3023  0700  19                	add	hl, de
  3024  0701  dd7e00            	ld	a,(ix-1)
  3025  0704  77                	ld	(hl), a
  3026  0705  13                	inc	de
  3027  0706  03                	inc	bc
  3028  0707  1800              	jr	l_printAtLocationBuf_00101
  3029                          l_printAtLocationBuf_00104:
  3030  0709  33                	inc	sp
  3031  070a  dde1              	pop	ix
  3032  070c  c9                	ret
  3033                          	SECTION code_compiler
  3034                          ;	---------------------------------
  3035                          ; Function centerText
  3036                          ; ---------------------------------
  3037                          _centerText:
  3038  070d  fd210000          	ld	iy,2
  3039  0711  fd39              	add	iy, sp
  3040  0713  fd7e00            	ld	a,(iy+0)
  3041  0716  fd6600            	ld	h,(iy+1)
  3042  0719  6f                	ld	l, a
  3043  071a  cd0000            	call	_strlen
  3044  071d  eb                	ex	de, hl
  3045  071e  cb3a              	srl	d
  3046  0720  cb1b              	rr	e
  3047  0722  210000            	ld	hl,0x000f
  3048  0725  bf                	cp	a, a
  3049  0726  ed52              	sbc	hl, de
  3050  0728  cd0000            	call	_abs
  3051  072b  45                	ld	b, l
  3052  072c  fd210000          	ld	iy,2
  3053  0730  fd39              	add	iy, sp
  3054  0732  fd6e00            	ld	l,(iy+0)
  3055  0735  fd6600            	ld	h,(iy+1)
  3056  0738  e5                	push	hl
  3057  0739  fd7e00            	ld	a,(iy+0+1+1)
  3058  073c  f5                	push	af
  3059  073d  33                	inc	sp
  3060  073e  c5                	push	bc
  3061  073f  33                	inc	sp
  3062  0740  cd0000            	call	_printAtLocationBuf
  3063  0743  33                	inc	sp
  3064  0744  33                	inc	sp
  3065  0745  33                	inc	sp
  3066  0746  33                	inc	sp
  3067  0747  c9                	ret
  3068                          	SECTION code_compiler
  3069                          ;	---------------------------------
  3070                          ; Function delay
  3071                          ; ---------------------------------
  3072                          _delay:
  3073  0748  210000            	ld	hl,2+0
  3074  074b  39                	add	hl, sp
  3075  074c  4e                	ld	c, (hl)
  3076                          l_delay_00101:
  3077  074d  79                	ld	a, c
  3078  074e  b7                	or	a, a
  3079  074f  c8                	ret	Z
  3080  0750  c5                	push	bc
  3081  0751  cd0000            	call	_vdp_waitVDPReadyInt
  3082  0754  c1                	pop	bc
  3083  0755  0d                	dec	c
  3084  0756  1800              	jr	l_delay_00101
  3085                          	SECTION code_compiler
  3086                          ;	---------------------------------
  3087                          ; Function hardReset
  3088                          ; ---------------------------------
  3089                          _hardReset:
  3090  0758  3e00              	ld	a,0xf3
  3091  075a  320000            	ld	(0x8880),a
  3092  075d  3e00              	ld	a,0x3e
  3093  075f  320000            	ld	(0x8881),a
  3094  0762  3e00              	ld	a,0x02
  3095  0764  320000            	ld	(0x8882),a
  3096  0767  3e00              	ld	a,0xd3
  3097  0769  320000            	ld	(0x8883),a
  3098  076c  3e00              	ld	a,0x00
  3099  076e  320000            	ld	(0x8884),a
  3100  0771  3e00              	ld	a,0xc7
  3101  0773  320000            	ld	(0x8885),a
  3102  0776  c30000            	jp	0x8880
  3103  0779  c9                	ret
  3104                          	SECTION code_compiler
  3105                          ;	---------------------------------
  3106                          ; Function initDisplay
  3107                          ; ---------------------------------
  3108                          _initDisplay:
  3109  077a  cd0000            	call	_initNABULib
  3110  077d  cd0000            	call	_vdp_clearVRAM
  3111  0780  af                	xor	a, a
  3112  0781  f5                	push	af
  3113  0782  33                	inc	sp
  3114  0783  af                	xor	a, a
  3115  0784  f5                	push	af
  3116  0785  33                	inc	sp
  3117  0786  af                	xor	a, a
  3118  0787  f5                	push	af
  3119  0788  33                	inc	sp
  3120  0789  af                	xor	a, a
  3121  078a  57                	ld	d,a
  3122  078b  1e00              	ld	e,0x01
  3123  078d  d5                	push	de
  3124  078e  cd0000            	call	_vdp_initG1Mode
  3125  0791  210000            	ld	hl,5
  3126  0794  39                	add	hl, sp
  3127  0795  f9                	ld	sp, hl
  3128  0796  210000            	ld	hl,0x0330
  3129  0799  e5                	push	hl
  3130  079a  210000            	ld	hl,_FAT
  3131  079d  e5                	push	hl
  3132  079e  cd0000            	call	_vdp_loadPatternTable
  3133  07a1  33                	inc	sp
  3134  07a2  33                	inc	sp
  3135  07a3  33                	inc	sp
  3136  07a4  33                	inc	sp
  3137  07a5  3e00              	ld	a,0x41
  3138  07a7  f5                	push	af
  3139  07a8  33                	inc	sp
  3140  07a9  cd0000            	call	_vdp_setPatternColor
  3141  07ac  33                	inc	sp
  3142  07ad  0600              	ld	b,0x41
  3143                          l_initDisplay_00108:
  3144  07af  78                	ld	a, b
  3145  07b0  d600              	sub	a,0x5c
  3146  07b2  3000              	jr	NC,l_initDisplay_00101
  3147  07b4  c5                	push	bc
  3148  07b5  110000            	ld	de,0x0103
  3149  07b8  d5                	push	de
  3150  07b9  c5                	push	bc
  3151  07ba  33                	inc	sp
  3152  07bb  cd0000            	call	_vdp_colorizePattern
  3153  07be  33                	inc	sp
  3154  07bf  33                	inc	sp
  3155  07c0  33                	inc	sp
  3156  07c1  c1                	pop	bc
  3157  07c2  04                	inc	b
  3158  07c3  1800              	jr	l_initDisplay_00108
  3159                          l_initDisplay_00101:
  3160  07c5  0600              	ld	b,0x30
  3161                          l_initDisplay_00111:
  3162  07c7  78                	ld	a, b
  3163  07c8  d600              	sub	a,0x3a
  3164  07ca  3000              	jr	NC,l_initDisplay_00102
  3165  07cc  c5                	push	bc
  3166  07cd  110000            	ld	de,0x0106
  3167  07d0  d5                	push	de
  3168  07d1  c5                	push	bc
  3169  07d2  33                	inc	sp
  3170  07d3  cd0000            	call	_vdp_colorizePattern
  3171  07d6  33                	inc	sp
  3172  07d7  33                	inc	sp
  3173  07d8  33                	inc	sp
  3174  07d9  c1                	pop	bc
  3175  07da  04                	inc	b
  3176  07db  1800              	jr	l_initDisplay_00111
  3177                          l_initDisplay_00102:
  3178  07dd  0600              	ld	b,0x20
  3179                          l_initDisplay_00114:
  3180  07df  3e00              	ld	a,0x2f
  3181  07e1  90                	sub	a, b
  3182  07e2  3800              	jr	C,l_initDisplay_00103
  3183  07e4  c5                	push	bc
  3184  07e5  110000            	ld	de,0x0103
  3185  07e8  d5                	push	de
  3186  07e9  c5                	push	bc
  3187  07ea  33                	inc	sp
  3188  07eb  cd0000            	call	_vdp_colorizePattern
  3189  07ee  33                	inc	sp
  3190  07ef  33                	inc	sp
  3191  07f0  33                	inc	sp
  3192  07f1  c1                	pop	bc
  3193  07f2  04                	inc	b
  3194  07f3  1800              	jr	l_initDisplay_00114
  3195                          l_initDisplay_00103:
  3196  07f5  0600              	ld	b,0x3a
  3197                          l_initDisplay_00117:
  3198  07f7  3e00              	ld	a,0x40
  3199  07f9  90                	sub	a, b
  3200  07fa  3800              	jr	C,l_initDisplay_00104
  3201  07fc  c5                	push	bc
  3202  07fd  110000            	ld	de,0x0103
  3203  0800  d5                	push	de
  3204  0801  c5                	push	bc
  3205  0802  33                	inc	sp
  3206  0803  cdc802            	call	_vdp_colorizePattern
  3207  0806  33                	inc	sp
  3208  0807  33                	inc	sp
  3209  0808  33                	inc	sp
  3210  0809  c1                	pop	bc
  3211  080a  04                	inc	b
  3212  080b  18ea              	jr	l_initDisplay_00117
  3213                          l_initDisplay_00104:
  3214  080d  065b              	ld	b,0x5b
  3215                          l_initDisplay_00120:
  3216  080f  3e60              	ld	a,0x60
  3217  0811  90                	sub	a, b
  3218  0812  3811              	jr	C,l_initDisplay_00105
  3219  0814  c5                	push	bc
  3220  0815  110301            	ld	de,0x0103
  3221  0818  d5                	push	de
  3222  0819  c5                	push	bc
  3223  081a  33                	inc	sp
  3224  081b  cdc802            	call	_vdp_colorizePattern
  3225  081e  33                	inc	sp
  3226  081f  33                	inc	sp
  3227  0820  33                	inc	sp
  3228  0821  c1                	pop	bc
  3229  0822  04                	inc	b
  3230  0823  18ea              	jr	l_initDisplay_00120
  3231                          l_initDisplay_00105:
  3232  0825  067b              	ld	b,0x7b
  3233                          l_initDisplay_00123:
  3234  0827  78                	ld	a, b
  3235  0828  d67e              	sub	a,0x7e
  3236  082a  3011              	jr	NC,l_initDisplay_00106
  3237  082c  c5                	push	bc
  3238  082d  110301            	ld	de,0x0103
  3239  0830  d5                	push	de
  3240  0831  c5                	push	bc
  3241  0832  33                	inc	sp
  3242  0833  cdc802            	call	_vdp_colorizePattern
  3243  0836  33                	inc	sp
  3244  0837  33                	inc	sp
  3245  0838  33                	inc	sp
  3246  0839  c1                	pop	bc
  3247  083a  04                	inc	b
  3248  083b  18ea              	jr	l_initDisplay_00123
  3249                          l_initDisplay_00106:
  3250  083d  110701            	ld	de,0x0107
  3251  0840  d5                	push	de
  3252  0841  3e0c              	ld	a,0x0c
  3253  0843  f5                	push	af
  3254  0844  33                	inc	sp
  3255  0845  cdc802            	call	_vdp_colorizePattern
  3256  0848  33                	inc	sp
  3257  0849  33                	inc	sp
  3258  084a  33                	inc	sp
  3259  084b  110401            	ld	de,0x0104
  3260  084e  d5                	push	de
  3261  084f  3e11              	ld	a,0x11
  3262  0851  f5                	push	af
  3263  0852  33                	inc	sp
  3264  0853  cdc802            	call	_vdp_colorizePattern
  3265  0856  33                	inc	sp
  3266  0857  33                	inc	sp
  3267  0858  33                	inc	sp
  3268  0859  110901            	ld	de,0x0109
  3269  085c  d5                	push	de
  3270  085d  3e12              	ld	a,0x12
  3271  085f  f5                	push	af
  3272  0860  33                	inc	sp
  3273  0861  cdc802            	call	_vdp_colorizePattern
  3274  0864  33                	inc	sp
  3275  0865  33                	inc	sp
  3276  0866  33                	inc	sp
  3277  0867  110b01            	ld	de,0x010b
  3278  086a  d5                	push	de
  3279  086b  3e13              	ld	a,0x13
  3280  086d  f5                	push	af
  3281  086e  33                	inc	sp
  3282  086f  cdc802            	call	_vdp_colorizePattern
  3283  0872  33                	inc	sp
  3284  0873  33                	inc	sp
  3285  0874  33                	inc	sp
  3286  0875  110301            	ld	de,0x0103
  3287  0878  d5                	push	de
  3288  0879  3e14              	ld	a,0x14
  3289  087b  f5                	push	af
  3290  087c  33                	inc	sp
  3291  087d  cdc802            	call	_vdp_colorizePattern
  3292  0880  33                	inc	sp
  3293  0881  33                	inc	sp
  3294  0882  33                	inc	sp
  3295  0883  110601            	ld	de,0x0106
  3296  0886  d5                	push	de
  3297  0887  3e15              	ld	a,0x15
  3298  0889  f5                	push	af
  3299  088a  33                	inc	sp
  3300  088b  cdc802            	call	_vdp_colorizePattern
  3301  088e  33                	inc	sp
  3302  088f  33                	inc	sp
  3303  0890  33                	inc	sp
  3304  0891  110d01            	ld	de,0x010d
  3305  0894  d5                	push	de
  3306  0895  3e16              	ld	a,0x16
  3307  0897  f5                	push	af
  3308  0898  33                	inc	sp
  3309  0899  cdc802            	call	_vdp_colorizePattern
  3310  089c  33                	inc	sp
  3311  089d  33                	inc	sp
  3312  089e  33                	inc	sp
  3313  089f  2e0a              	ld	l,0x0a
  3314  08a1  c39903            	jp	_vdp_setBackDropColor
  3315                          	SECTION rodata_compiler
  3316                          _TETRONIMOS:
  3317  0402  20                	DEFB +0x20
  3318  0403  13                	DEFB +0x13
  3319  0404  13                	DEFB +0x13
  3320  0405  20                	DEFB +0x20
  3321  0406  20                	DEFB +0x20
  3322  0407  13                	DEFB +0x13
  3323  0408  13                	DEFB +0x13
  3324  0409  20                	DEFB +0x20
  3325  040a  20                	DEFB +0x20
  3326  040b  20                	DEFB +0x20
  3327  040c  20                	DEFB +0x20
  3328  040d  20                	DEFB +0x20
  3329  040e  20                	DEFB +0x20
  3330  040f  20                	DEFB +0x20
  3331  0410  20                	DEFB +0x20
  3332  0411  20                	DEFB +0x20
  3333  0412  20                	DEFB +0x20
  3334  0413  20                	DEFB +0x20
  3335  0414  20                	DEFB +0x20
  3336  0415  20                	DEFB +0x20
  3337  0416  0c                	DEFB +0x0c
  3338  0417  0c                	DEFB +0x0c
  3339  0418  0c                	DEFB +0x0c
  3340  0419  0c                	DEFB +0x0c
  3341  041a  20                	DEFB +0x20
  3342  041b  20                	DEFB +0x20
  3343  041c  20                	DEFB +0x20
  3344  041d  20                	DEFB +0x20
  3345  041e  20                	DEFB +0x20
  3346  041f  20                	DEFB +0x20
  3347  0420  20                	DEFB +0x20
  3348  0421  20                	DEFB +0x20
  3349  0422  20                	DEFB +0x20
  3350  0423  20                	DEFB +0x20
  3351  0424  0c                	DEFB +0x0c
  3352  0425  20                	DEFB +0x20
  3353  0426  20                	DEFB +0x20
  3354  0427  20                	DEFB +0x20
  3355  0428  0c                	DEFB +0x0c
  3356  0429  20                	DEFB +0x20
  3357  042a  20                	DEFB +0x20
  3358  042b  20                	DEFB +0x20
  3359  042c  0c                	DEFB +0x0c
  3360  042d  20                	DEFB +0x20
  3361  042e  20                	DEFB +0x20
  3362  042f  20                	DEFB +0x20
  3363  0430  0c                	DEFB +0x0c
  3364  0431  20                	DEFB +0x20
  3365  0432  20                	DEFB +0x20
  3366  0433  20                	DEFB +0x20
  3367  0434  20                	DEFB +0x20
  3368  0435  20                	DEFB +0x20
  3369  0436  20                	DEFB +0x20
  3370  0437  20                	DEFB +0x20
  3371  0438  20                	DEFB +0x20
  3372  0439  20                	DEFB +0x20
  3373  043a  0c                	DEFB +0x0c
  3374  043b  0c                	DEFB +0x0c
  3375  043c  0c                	DEFB +0x0c
  3376  043d  0c                	DEFB +0x0c
  3377  043e  20                	DEFB +0x20
  3378  043f  20                	DEFB +0x20
  3379  0440  20                	DEFB +0x20
  3380  0441  20                	DEFB +0x20
  3381  0442  20                	DEFB +0x20
  3382  0443  0c                	DEFB +0x0c
  3383  0444  20                	DEFB +0x20
  3384  0445  20                	DEFB +0x20
  3385  0446  20                	DEFB +0x20
  3386  0447  0c                	DEFB +0x0c
  3387  0448  20                	DEFB +0x20
  3388  0449  20                	DEFB +0x20
  3389  044a  20                	DEFB +0x20
  3390  044b  0c                	DEFB +0x0c
  3391  044c  20                	DEFB +0x20
  3392  044d  20                	DEFB +0x20
  3393  044e  20                	DEFB +0x20
  3394  044f  0c                	DEFB +0x0c
  3395  0450  20                	DEFB +0x20
  3396  0451  20                	DEFB +0x20
  3397  0452  20                	DEFB +0x20
  3398  0453  14                	DEFB +0x14
  3399  0454  14                	DEFB +0x14
  3400  0455  20                	DEFB +0x20
  3401  0456  14                	DEFB +0x14
  3402  0457  14                	DEFB +0x14
  3403  0458  20                	DEFB +0x20
  3404  0459  20                	DEFB +0x20
  3405  045a  20                	DEFB +0x20
  3406  045b  20                	DEFB +0x20
  3407  045c  20                	DEFB +0x20
  3408  045d  20                	DEFB +0x20
  3409  045e  20                	DEFB +0x20
  3410  045f  20                	DEFB +0x20
  3411  0460  20                	DEFB +0x20
  3412  0461  20                	DEFB +0x20
  3413  0462  20                	DEFB +0x20
  3414  0463  14                	DEFB +0x14
  3415  0464  20                	DEFB +0x20
  3416  0465  20                	DEFB +0x20
  3417  0466  20                	DEFB +0x20
  3418  0467  14                	DEFB +0x14
  3419  0468  14                	DEFB +0x14
  3420  0469  20                	DEFB +0x20
  3421  046a  20                	DEFB +0x20
  3422  046b  20                	DEFB +0x20
  3423  046c  14                	DEFB +0x14
  3424  046d  20                	DEFB +0x20
  3425  046e  20                	DEFB +0x20
  3426  046f  20                	DEFB +0x20
  3427  0470  20                	DEFB +0x20
  3428  0471  20                	DEFB +0x20
  3429  0472  20                	DEFB +0x20
  3430  0473  20                	DEFB +0x20
  3431  0474  20                	DEFB +0x20
  3432  0475  20                	DEFB +0x20
  3433  0476  20                	DEFB +0x20
  3434  0477  14                	DEFB +0x14
  3435  0478  14                	DEFB +0x14
  3436  0479  20                	DEFB +0x20
  3437  047a  14                	DEFB +0x14
  3438  047b  14                	DEFB +0x14
  3439  047c  20                	DEFB +0x20
  3440  047d  20                	DEFB +0x20
  3441  047e  20                	DEFB +0x20
  3442  047f  20                	DEFB +0x20
  3443  0480  20                	DEFB +0x20
  3444  0481  20                	DEFB +0x20
  3445  0482  14                	DEFB +0x14
  3446  0483  20                	DEFB +0x20
  3447  0484  20                	DEFB +0x20
  3448  0485  20                	DEFB +0x20
  3449  0486  14                	DEFB +0x14
  3450  0487  14                	DEFB +0x14
  3451  0488  20                	DEFB +0x20
  3452  0489  20                	DEFB +0x20
  3453  048a  20                	DEFB +0x20
  3454  048b  14                	DEFB +0x14
  3455  048c  20                	DEFB +0x20
  3456  048d  20                	DEFB +0x20
  3457  048e  20                	DEFB +0x20
  3458  048f  20                	DEFB +0x20
  3459  0490  20                	DEFB +0x20
  3460  0491  20                	DEFB +0x20
  3461  0492  15                	DEFB +0x15
  3462  0493  15                	DEFB +0x15
  3463  0494  20                	DEFB +0x20
  3464  0495  20                	DEFB +0x20
  3465  0496  20                	DEFB +0x20
  3466  0497  15                	DEFB +0x15
  3467  0498  15                	DEFB +0x15
  3468  0499  20                	DEFB +0x20
  3469  049a  20                	DEFB +0x20
  3470  049b  20                	DEFB +0x20
  3471  049c  20                	DEFB +0x20
  3472  049d  20                	DEFB +0x20
  3473  049e  20                	DEFB +0x20
  3474  049f  20                	DEFB +0x20
  3475  04a0  20                	DEFB +0x20
  3476  04a1  20                	DEFB +0x20
  3477  04a2  20                	DEFB +0x20
  3478  04a3  20                	DEFB +0x20
  3479  04a4  15                	DEFB +0x15
  3480  04a5  20                	DEFB +0x20
  3481  04a6  20                	DEFB +0x20
  3482  04a7  15                	DEFB +0x15
  3483  04a8  15                	DEFB +0x15
  3484  04a9  20                	DEFB +0x20
  3485  04aa  20                	DEFB +0x20
  3486  04ab  15                	DEFB +0x15
  3487  04ac  20                	DEFB +0x20
  3488  04ad  20                	DEFB +0x20
  3489  04ae  20                	DEFB +0x20
  3490  04af  20                	DEFB +0x20
  3491  04b0  20                	DEFB +0x20
  3492  04b1  20                	DEFB +0x20
  3493  04b2  20                	DEFB +0x20
  3494  04b3  20                	DEFB +0x20
  3495  04b4  20                	DEFB +0x20
  3496  04b5  20                	DEFB +0x20
  3497  04b6  15                	DEFB +0x15
  3498  04b7  15                	DEFB +0x15
  3499  04b8  20                	DEFB +0x20
  3500  04b9  20                	DEFB +0x20
  3501  04ba  20                	DEFB +0x20
  3502  04bb  15                	DEFB +0x15
  3503  04bc  15                	DEFB +0x15
  3504  04bd  20                	DEFB +0x20
  3505  04be  20                	DEFB +0x20
  3506  04bf  20                	DEFB +0x20
  3507  04c0  20                	DEFB +0x20
  3508  04c1  20                	DEFB +0x20
  3509  04c2  20                	DEFB +0x20
  3510  04c3  15                	DEFB +0x15
  3511  04c4  20                	DEFB +0x20
  3512  04c5  20                	DEFB +0x20
  3513  04c6  15                	DEFB +0x15
  3514  04c7  15                	DEFB +0x15
  3515  04c8  20                	DEFB +0x20
  3516  04c9  20                	DEFB +0x20
  3517  04ca  15                	DEFB +0x15
  3518  04cb  20                	DEFB +0x20
  3519  04cc  20                	DEFB +0x20
  3520  04cd  20                	DEFB +0x20
  3521  04ce  20                	DEFB +0x20
  3522  04cf  20                	DEFB +0x20
  3523  04d0  20                	DEFB +0x20
  3524  04d1  20                	DEFB +0x20
  3525  04d2  20                	DEFB +0x20
  3526  04d3  20                	DEFB +0x20
  3527  04d4  12                	DEFB +0x12
  3528  04d5  20                	DEFB +0x20
  3529  04d6  12                	DEFB +0x12
  3530  04d7  12                	DEFB +0x12
  3531  04d8  12                	DEFB +0x12
  3532  04d9  20                	DEFB +0x20
  3533  04da  20                	DEFB +0x20
  3534  04db  20                	DEFB +0x20
  3535  04dc  20                	DEFB +0x20
  3536  04dd  20                	DEFB +0x20
  3537  04de  20                	DEFB +0x20
  3538  04df  20                	DEFB +0x20
  3539  04e0  20                	DEFB +0x20
  3540  04e1  20                	DEFB +0x20
  3541  04e2  20                	DEFB +0x20
  3542  04e3  12                	DEFB +0x12
  3543  04e4  20                	DEFB +0x20
  3544  04e5  20                	DEFB +0x20
  3545  04e6  20                	DEFB +0x20
  3546  04e7  12                	DEFB +0x12
  3547  04e8  20                	DEFB +0x20
  3548  04e9  20                	DEFB +0x20
  3549  04ea  20                	DEFB +0x20
  3550  04eb  12                	DEFB +0x12
  3551  04ec  12                	DEFB +0x12
  3552  04ed  20                	DEFB +0x20
  3553  04ee  20                	DEFB +0x20
  3554  04ef  20                	DEFB +0x20
  3555  04f0  20                	DEFB +0x20
  3556  04f1  20                	DEFB +0x20
  3557  04f2  20                	DEFB +0x20
  3558  04f3  20                	DEFB +0x20
  3559  04f4  20                	DEFB +0x20
  3560  04f5  20                	DEFB +0x20
  3561  04f6  12                	DEFB +0x12
  3562  04f7  12                	DEFB +0x12
  3563  04f8  12                	DEFB +0x12
  3564  04f9  20                	DEFB +0x20
  3565  04fa  12                	DEFB +0x12
  3566  04fb  20                	DEFB +0x20
  3567  04fc  20                	DEFB +0x20
  3568  04fd  20                	DEFB +0x20
  3569  04fe  20                	DEFB +0x20
  3570  04ff  20                	DEFB +0x20
  3571  0500  20                	DEFB +0x20
  3572  0501  20                	DEFB +0x20
  3573  0502  12                	DEFB +0x12
  3574  0503  12                	DEFB +0x12
  3575  0504  20                	DEFB +0x20
  3576  0505  20                	DEFB +0x20
  3577  0506  20                	DEFB +0x20
  3578  0507  12                	DEFB +0x12
  3579  0508  20                	DEFB +0x20
  3580  0509  20                	DEFB +0x20
  3581  050a  20                	DEFB +0x20
  3582  050b  12                	DEFB +0x12
  3583  050c  20                	DEFB +0x20
  3584  050d  20                	DEFB +0x20
  3585  050e  20                	DEFB +0x20
  3586  050f  20                	DEFB +0x20
  3587  0510  20                	DEFB +0x20
  3588  0511  20                	DEFB +0x20
  3589  0512  11                	DEFB +0x11
  3590  0513  20                	DEFB +0x20
  3591  0514  20                	DEFB +0x20
  3592  0515  20                	DEFB +0x20
  3593  0516  11                	DEFB +0x11
  3594  0517  11                	DEFB +0x11
  3595  0518  11                	DEFB +0x11
  3596  0519  20                	DEFB +0x20
  3597  051a  20                	DEFB +0x20
  3598  051b  20                	DEFB +0x20
  3599  051c  20                	DEFB +0x20
  3600  051d  20                	DEFB +0x20
  3601  051e  20                	DEFB +0x20
  3602  051f  20                	DEFB +0x20
  3603  0520  20                	DEFB +0x20
  3604  0521  20                	DEFB +0x20
  3605  0522  20                	DEFB +0x20
  3606  0523  11                	DEFB +0x11
  3607  0524  11                	DEFB +0x11
  3608  0525  20                	DEFB +0x20
  3609  0526  20                	DEFB +0x20
  3610  0527  11                	DEFB +0x11
  3611  0528  20                	DEFB +0x20
  3612  0529  20                	DEFB +0x20
  3613  052a  20                	DEFB +0x20
  3614  052b  11                	DEFB +0x11
  3615  052c  20                	DEFB +0x20
  3616  052d  20                	DEFB +0x20
  3617  052e  20                	DEFB +0x20
  3618  052f  20                	DEFB +0x20
  3619  0530  20                	DEFB +0x20
  3620  0531  20                	DEFB +0x20
  3621  0532  20                	DEFB +0x20
  3622  0533  20                	DEFB +0x20
  3623  0534  20                	DEFB +0x20
  3624  0535  20                	DEFB +0x20
  3625  0536  11                	DEFB +0x11
  3626  0537  11                	DEFB +0x11
  3627  0538  11                	DEFB +0x11
  3628  0539  20                	DEFB +0x20
  3629  053a  20                	DEFB +0x20
  3630  053b  20                	DEFB +0x20
  3631  053c  11                	DEFB +0x11
  3632  053d  20                	DEFB +0x20
  3633  053e  20                	DEFB +0x20
  3634  053f  20                	DEFB +0x20
  3635  0540  20                	DEFB +0x20
  3636  0541  20                	DEFB +0x20
  3637  0542  20                	DEFB +0x20
  3638  0543  11                	DEFB +0x11
  3639  0544  20                	DEFB +0x20
  3640  0545  20                	DEFB +0x20
  3641  0546  20                	DEFB +0x20
  3642  0547  11                	DEFB +0x11
  3643  0548  20                	DEFB +0x20
  3644  0549  20                	DEFB +0x20
  3645  054a  11                	DEFB +0x11
  3646  054b  11                	DEFB +0x11
  3647  054c  20                	DEFB +0x20
  3648  054d  20                	DEFB +0x20
  3649  054e  20                	DEFB +0x20
  3650  054f  20                	DEFB +0x20
  3651  0550  20                	DEFB +0x20
  3652  0551  20                	DEFB +0x20
  3653  0552  20                	DEFB +0x20
  3654  0553  16                	DEFB +0x16
  3655  0554  20                	DEFB +0x20
  3656  0555  20                	DEFB +0x20
  3657  0556  16                	DEFB +0x16
  3658  0557  16                	DEFB +0x16
  3659  0558  16                	DEFB +0x16
  3660  0559  20                	DEFB +0x20
  3661  055a  20                	DEFB +0x20
  3662  055b  20                	DEFB +0x20
  3663  055c  20                	DEFB +0x20
  3664  055d  20                	DEFB +0x20
  3665  055e  20                	DEFB +0x20
  3666  055f  20                	DEFB +0x20
  3667  0560  20                	DEFB +0x20
  3668  0561  20                	DEFB +0x20
  3669  0562  20                	DEFB +0x20
  3670  0563  16                	DEFB +0x16
  3671  0564  20                	DEFB +0x20
  3672  0565  20                	DEFB +0x20
  3673  0566  20                	DEFB +0x20
  3674  0567  16                	DEFB +0x16
  3675  0568  16                	DEFB +0x16
  3676  0569  20                	DEFB +0x20
  3677  056a  20                	DEFB +0x20
  3678  056b  16                	DEFB +0x16
  3679  056c  20                	DEFB +0x20
  3680  056d  20                	DEFB +0x20
  3681  056e  20                	DEFB +0x20
  3682  056f  20                	DEFB +0x20
  3683  0570  20                	DEFB +0x20
  3684  0571  20                	DEFB +0x20
  3685  0572  20                	DEFB +0x20
  3686  0573  20                	DEFB +0x20
  3687  0574  20                	DEFB +0x20
  3688  0575  20                	DEFB +0x20
  3689  0576  16                	DEFB +0x16
  3690  0577  16                	DEFB +0x16
  3691  0578  16                	DEFB +0x16
  3692  0579  20                	DEFB +0x20
  3693  057a  20                	DEFB +0x20
  3694  057b  16                	DEFB +0x16
  3695  057c  20                	DEFB +0x20
  3696  057d  20                	DEFB +0x20
  3697  057e  20                	DEFB +0x20
  3698  057f  20                	DEFB +0x20
  3699  0580  20                	DEFB +0x20
  3700  0581  20                	DEFB +0x20
  3701  0582  20                	DEFB +0x20
  3702  0583  16                	DEFB +0x16
  3703  0584  20                	DEFB +0x20
  3704  0585  20                	DEFB +0x20
  3705  0586  16                	DEFB +0x16
  3706  0587  16                	DEFB +0x16
  3707  0588  20                	DEFB +0x20
  3708  0589  20                	DEFB +0x20
  3709  058a  20                	DEFB +0x20
  3710  058b  16                	DEFB +0x16
  3711  058c  20                	DEFB +0x20
  3712  058d  20                	DEFB +0x20
  3713  058e  20                	DEFB +0x20
  3714  058f  20                	DEFB +0x20
  3715  0590  20                	DEFB +0x20
  3716  0591  20                	DEFB +0x20
  3717                          _MAP:
  3718  0592  0d                	DEFB +0x0d
  3719  0593  0a                	DEFB +0x0a
  3720  0594  0a                	DEFB +0x0a
  3721  0595  0a                	DEFB +0x0a
  3722  0596  0a                	DEFB +0x0a
  3723  0597  0a                	DEFB +0x0a
  3724  0598  0a                	DEFB +0x0a
  3725  0599  0a                	DEFB +0x0a
  3726  059a  0a                	DEFB +0x0a
  3727  059b  0a                	DEFB +0x0a
  3728  059c  0a                	DEFB +0x0a
  3729  059d  06                	DEFB +0x06
  3730  059e  0a                	DEFB +0x0a
  3731  059f  0a                	DEFB +0x0a
  3732  05a0  0a                	DEFB +0x0a
  3733  05a1  0a                	DEFB +0x0a
  3734  05a2  0a                	DEFB +0x0a
  3735  05a3  0a                	DEFB +0x0a
  3736  05a4  0a                	DEFB +0x0a
  3737  05a5  0e                	DEFB +0x0e
  3738  05a6  0b                	DEFB +0x0b
  3739  05a7  20                	DEFB +0x20
  3740  05a8  20                	DEFB +0x20
  3741  05a9  20                	DEFB +0x20
  3742  05aa  20                	DEFB +0x20
  3743  05ab  20                	DEFB +0x20
  3744  05ac  20                	DEFB +0x20
  3745  05ad  20                	DEFB +0x20
  3746  05ae  20                	DEFB +0x20
  3747  05af  20                	DEFB +0x20
  3748  05b0  20                	DEFB +0x20
  3749  05b1  0b                	DEFB +0x0b
  3750  05b2  20                	DEFB +0x20
  3751  05b3  20                	DEFB +0x20
  3752  05b4  20                	DEFB +0x20
  3753  05b5  20                	DEFB +0x20
  3754  05b6  20                	DEFB +0x20
  3755  05b7  20                	DEFB +0x20
  3756  05b8  20                	DEFB +0x20
  3757  05b9  0b                	DEFB +0x0b
  3758  05ba  0b                	DEFB +0x0b
  3759  05bb  20                	DEFB +0x20
  3760  05bc  20                	DEFB +0x20
  3761  05bd  20                	DEFB +0x20
  3762  05be  20                	DEFB +0x20
  3763  05bf  20                	DEFB +0x20
  3764  05c0  20                	DEFB +0x20
  3765  05c1  20                	DEFB +0x20
  3766  05c2  20                	DEFB +0x20
  3767  05c3  20                	DEFB +0x20
  3768  05c4  20                	DEFB +0x20
  3769  05c5  0b                	DEFB +0x0b
  3770  05c6  20                	DEFB +0x20
  3771  05c7  20                	DEFB +0x20
  3772  05c8  20                	DEFB +0x20
  3773  05c9  20                	DEFB +0x20
  3774  05ca  20                	DEFB +0x20
  3775  05cb  20                	DEFB +0x20
  3776  05cc  20                	DEFB +0x20
  3777  05cd  0b                	DEFB +0x0b
  3778  05ce  0b                	DEFB +0x0b
  3779  05cf  20                	DEFB +0x20
  3780  05d0  20                	DEFB +0x20
  3781  05d1  20                	DEFB +0x20
  3782  05d2  20                	DEFB +0x20
  3783  05d3  20                	DEFB +0x20
  3784  05d4  20                	DEFB +0x20
  3785  05d5  20                	DEFB +0x20
  3786  05d6  20                	DEFB +0x20
  3787  05d7  20                	DEFB +0x20
  3788  05d8  20                	DEFB +0x20
  3789  05d9  0b                	DEFB +0x0b
  3790  05da  20                	DEFB +0x20
  3791  05db  20                	DEFB +0x20
  3792  05dc  20                	DEFB +0x20
  3793  05dd  20                	DEFB +0x20
  3794  05de  20                	DEFB +0x20
  3795  05df  20                	DEFB +0x20
  3796  05e0  20                	DEFB +0x20
  3797  05e1  0b                	DEFB +0x0b
  3798  05e2  0b                	DEFB +0x0b
  3799  05e3  20                	DEFB +0x20
  3800  05e4  20                	DEFB +0x20
  3801  05e5  20                	DEFB +0x20
  3802  05e6  20                	DEFB +0x20
  3803  05e7  20                	DEFB +0x20
  3804  05e8  20                	DEFB +0x20
  3805  05e9  20                	DEFB +0x20
  3806  05ea  20                	DEFB +0x20
  3807  05eb  20                	DEFB +0x20
  3808  05ec  20                	DEFB +0x20
  3809  05ed  0b                	DEFB +0x0b
  3810  05ee  20                	DEFB +0x20
  3811  05ef  20                	DEFB +0x20
  3812  05f0  20                	DEFB +0x20
  3813  05f1  20                	DEFB +0x20
  3814  05f2  20                	DEFB +0x20
  3815  05f3  20                	DEFB +0x20
  3816  05f4  20                	DEFB +0x20
  3817  05f5  0b                	DEFB +0x0b
  3818  05f6  0b                	DEFB +0x0b
  3819  05f7  20                	DEFB +0x20
  3820  05f8  20                	DEFB +0x20
  3821  05f9  20                	DEFB +0x20
  3822  05fa  20                	DEFB +0x20
  3823  05fb  20                	DEFB +0x20
  3824  05fc  20                	DEFB +0x20
  3825  05fd  20                	DEFB +0x20
  3826  05fe  20                	DEFB +0x20
  3827  05ff  20                	DEFB +0x20
  3828  0600  20                	DEFB +0x20
  3829  0601  0b                	DEFB +0x0b
  3830  0602  20                	DEFB +0x20
  3831  0603  20                	DEFB +0x20
  3832  0604  20                	DEFB +0x20
  3833  0605  20                	DEFB +0x20
  3834  0606  20                	DEFB +0x20
  3835  0607  20                	DEFB +0x20
  3836  0608  20                	DEFB +0x20
  3837  0609  0b                	DEFB +0x0b
  3838  060a  0b                	DEFB +0x0b
  3839  060b  20                	DEFB +0x20
  3840  060c  20                	DEFB +0x20
  3841  060d  20                	DEFB +0x20
  3842  060e  20                	DEFB +0x20
  3843  060f  20                	DEFB +0x20
  3844  0610  20                	DEFB +0x20
  3845  0611  20                	DEFB +0x20
  3846  0612  20                	DEFB +0x20
  3847  0613  20                	DEFB +0x20
  3848  0614  20                	DEFB +0x20
  3849  0615  0b                	DEFB +0x0b
  3850  0616  20                	DEFB +0x20
  3851  0617  20                	DEFB +0x20
  3852  0618  20                	DEFB +0x20
  3853  0619  20                	DEFB +0x20
  3854  061a  20                	DEFB +0x20
  3855  061b  20                	DEFB +0x20
  3856  061c  20                	DEFB +0x20
  3857  061d  0b                	DEFB +0x0b
  3858  061e  0b                	DEFB +0x0b
  3859  061f  20                	DEFB +0x20
  3860  0620  20                	DEFB +0x20
  3861  0621  20                	DEFB +0x20
  3862  0622  20                	DEFB +0x20
  3863  0623  20                	DEFB +0x20
  3864  0624  20                	DEFB +0x20
  3865  0625  20                	DEFB +0x20
  3866  0626  20                	DEFB +0x20
  3867  0627  20                	DEFB +0x20
  3868  0628  20                	DEFB +0x20
  3869  0629  09                	DEFB +0x09
  3870  062a  0a                	DEFB +0x0a
  3871  062b  0a                	DEFB +0x0a
  3872  062c  0a                	DEFB +0x0a
  3873  062d  0a                	DEFB +0x0a
  3874  062e  0a                	DEFB +0x0a
  3875  062f  0a                	DEFB +0x0a
  3876  0630  0a                	DEFB +0x0a
  3877  0631  08                	DEFB +0x08
  3878  0632  0b                	DEFB +0x0b
  3879  0633  20                	DEFB +0x20
  3880  0634  20                	DEFB +0x20
  3881  0635  20                	DEFB +0x20
  3882  0636  20                	DEFB +0x20
  3883  0637  20                	DEFB +0x20
  3884  0638  20                	DEFB +0x20
  3885  0639  20                	DEFB +0x20
  3886  063a  20                	DEFB +0x20
  3887  063b  20                	DEFB +0x20
  3888  063c  20                	DEFB +0x20
  3889  063d  0b                	DEFB +0x0b
  3890  063e  20                	DEFB +0x20
  3891  063f  20                	DEFB +0x20
  3892  0640  20                	DEFB +0x20
  3893  0641  20                	DEFB +0x20
  3894  0642  20                	DEFB +0x20
  3895  0643  20                	DEFB +0x20
  3896  0644  20                	DEFB +0x20
  3897  0645  0b                	DEFB +0x0b
  3898  0646  0b                	DEFB +0x0b
  3899  0647  20                	DEFB +0x20
  3900  0648  20                	DEFB +0x20
  3901  0649  20                	DEFB +0x20
  3902  064a  20                	DEFB +0x20
  3903  064b  20                	DEFB +0x20
  3904  064c  20                	DEFB +0x20
  3905  064d  20                	DEFB +0x20
  3906  064e  20                	DEFB +0x20
  3907  064f  20                	DEFB +0x20
  3908  0650  20                	DEFB +0x20
  3909  0651  0b                	DEFB +0x0b
  3910  0652  20                	DEFB +0x20
  3911  0653  20                	DEFB +0x20
  3912  0654  20                	DEFB +0x20
  3913  0655  20                	DEFB +0x20
  3914  0656  20                	DEFB +0x20
  3915  0657  20                	DEFB +0x20
  3916  0658  20                	DEFB +0x20
  3917  0659  0b                	DEFB +0x0b
  3918  065a  0b                	DEFB +0x0b
  3919  065b  20                	DEFB +0x20
  3920  065c  20                	DEFB +0x20
  3921  065d  20                	DEFB +0x20
  3922  065e  20                	DEFB +0x20
  3923  065f  20                	DEFB +0x20
  3924  0660  20                	DEFB +0x20
  3925  0661  20                	DEFB +0x20
  3926  0662  20                	DEFB +0x20
  3927  0663  20                	DEFB +0x20
  3928  0664  20                	DEFB +0x20
  3929  0665  0b                	DEFB +0x0b
  3930  0666  20                	DEFB +0x20
  3931  0667  20                	DEFB +0x20
  3932  0668  20                	DEFB +0x20
  3933  0669  20                	DEFB +0x20
  3934  066a  20                	DEFB +0x20
  3935  066b  20                	DEFB +0x20
  3936  066c  20                	DEFB +0x20
  3937  066d  0b                	DEFB +0x0b
  3938  066e  0b                	DEFB +0x0b
  3939  066f  20                	DEFB +0x20
  3940  0670  20                	DEFB +0x20
  3941  0671  20                	DEFB +0x20
  3942  0672  20                	DEFB +0x20
  3943  0673  20                	DEFB +0x20
  3944  0674  20                	DEFB +0x20
  3945  0675  20                	DEFB +0x20
  3946  0676  20                	DEFB +0x20
  3947  0677  20                	DEFB +0x20
  3948  0678  20                	DEFB +0x20
  3949  0679  0b                	DEFB +0x0b
  3950  067a  20                	DEFB +0x20
  3951  067b  20                	DEFB +0x20
  3952  067c  20                	DEFB +0x20
  3953  067d  20                	DEFB +0x20
  3954  067e  20                	DEFB +0x20
  3955  067f  20                	DEFB +0x20
  3956  0680  20                	DEFB +0x20
  3957  0681  0b                	DEFB +0x0b
  3958  0682  0b                	DEFB +0x0b
  3959  0683  20                	DEFB +0x20
  3960  0684  20                	DEFB +0x20
  3961  0685  20                	DEFB +0x20
  3962  0686  20                	DEFB +0x20
  3963  0687  20                	DEFB +0x20
  3964  0688  20                	DEFB +0x20
  3965  0689  20                	DEFB +0x20
  3966  068a  20                	DEFB +0x20
  3967  068b  20                	DEFB +0x20
  3968  068c  20                	DEFB +0x20
  3969  068d  0b                	DEFB +0x0b
  3970  068e  20                	DEFB +0x20
  3971  068f  20                	DEFB +0x20
  3972  0690  20                	DEFB +0x20
  3973  0691  20                	DEFB +0x20
  3974  0692  20                	DEFB +0x20
  3975  0693  20                	DEFB +0x20
  3976  0694  20                	DEFB +0x20
  3977  0695  0b                	DEFB +0x0b
  3978  0696  0b                	DEFB +0x0b
  3979  0697  20                	DEFB +0x20
  3980  0698  20                	DEFB +0x20
  3981  0699  20                	DEFB +0x20
  3982  069a  20                	DEFB +0x20
  3983  069b  20                	DEFB +0x20
  3984  069c  20                	DEFB +0x20
  3985  069d  20                	DEFB +0x20
  3986  069e  20                	DEFB +0x20
  3987  069f  20                	DEFB +0x20
  3988  06a0  20                	DEFB +0x20
  3989  06a1  0b                	DEFB +0x0b
  3990  06a2  20                	DEFB +0x20
  3991  06a3  20                	DEFB +0x20
  3992  06a4  20                	DEFB +0x20
  3993  06a5  20                	DEFB +0x20
  3994  06a6  20                	DEFB +0x20
  3995  06a7  20                	DEFB +0x20
  3996  06a8  20                	DEFB +0x20
  3997  06a9  0b                	DEFB +0x0b
  3998  06aa  0b                	DEFB +0x0b
  3999  06ab  20                	DEFB +0x20
  4000  06ac  20                	DEFB +0x20
  4001  06ad  20                	DEFB +0x20
  4002  06ae  20                	DEFB +0x20
  4003  06af  20                	DEFB +0x20
  4004  06b0  20                	DEFB +0x20
  4005  06b1  20                	DEFB +0x20
  4006  06b2  20                	DEFB +0x20
  4007  06b3  20                	DEFB +0x20
  4008  06b4  20                	DEFB +0x20
  4009  06b5  0b                	DEFB +0x0b
  4010  06b6  20                	DEFB +0x20
  4011  06b7  20                	DEFB +0x20
  4012  06b8  20                	DEFB +0x20
  4013  06b9  20                	DEFB +0x20
  4014  06ba  20                	DEFB +0x20
  4015  06bb  20                	DEFB +0x20
  4016  06bc  20                	DEFB +0x20
  4017  06bd  0b                	DEFB +0x0b
  4018  06be  0b                	DEFB +0x0b
  4019  06bf  20                	DEFB +0x20
  4020  06c0  20                	DEFB +0x20
  4021  06c1  20                	DEFB +0x20
  4022  06c2  20                	DEFB +0x20
  4023  06c3  20                	DEFB +0x20
  4024  06c4  20                	DEFB +0x20
  4025  06c5  20                	DEFB +0x20
  4026  06c6  20                	DEFB +0x20
  4027  06c7  20                	DEFB +0x20
  4028  06c8  20                	DEFB +0x20
  4029  06c9  09                	DEFB +0x09
  4030  06ca  0a                	DEFB +0x0a
  4031  06cb  0a                	DEFB +0x0a
  4032  06cc  0a                	DEFB +0x0a
  4033  06cd  0a                	DEFB +0x0a
  4034  06ce  0a                	DEFB +0x0a
  4035  06cf  0a                	DEFB +0x0a
  4036  06d0  0a                	DEFB +0x0a
  4037  06d1  08                	DEFB +0x08
  4038  06d2  0b                	DEFB +0x0b
  4039  06d3  20                	DEFB +0x20
  4040  06d4  20                	DEFB +0x20
  4041  06d5  20                	DEFB +0x20
  4042  06d6  20                	DEFB +0x20
  4043  06d7  20                	DEFB +0x20
  4044  06d8  20                	DEFB +0x20
  4045  06d9  20                	DEFB +0x20
  4046  06da  20                	DEFB +0x20
  4047  06db  20                	DEFB +0x20
  4048  06dc  20                	DEFB +0x20
  4049  06dd  0b                	DEFB +0x0b
  4050  06de  20                	DEFB +0x20
  4051  06df  20                	DEFB +0x20
  4052  06e0  20                	DEFB +0x20
  4053  06e1  20                	DEFB +0x20
  4054  06e2  20                	DEFB +0x20
  4055  06e3  20                	DEFB +0x20
  4056  06e4  20                	DEFB +0x20
  4057  06e5  0b                	DEFB +0x0b
  4058  06e6  0b                	DEFB +0x0b
  4059  06e7  20                	DEFB +0x20
  4060  06e8  20                	DEFB +0x20
  4061  06e9  20                	DEFB +0x20
  4062  06ea  20                	DEFB +0x20
  4063  06eb  20                	DEFB +0x20
  4064  06ec  20                	DEFB +0x20
  4065  06ed  20                	DEFB +0x20
  4066  06ee  20                	DEFB +0x20
  4067  06ef  20                	DEFB +0x20
  4068  06f0  20                	DEFB +0x20
  4069  06f1  0b                	DEFB +0x0b
  4070  06f2  20                	DEFB +0x20
  4071  06f3  20                	DEFB +0x20
  4072  06f4  20                	DEFB +0x20
  4073  06f5  20                	DEFB +0x20
  4074  06f6  20                	DEFB +0x20
  4075  06f7  20                	DEFB +0x20
  4076  06f8  20                	DEFB +0x20
  4077  06f9  0b                	DEFB +0x0b
  4078  06fa  0b                	DEFB +0x0b
  4079  06fb  20                	DEFB +0x20
  4080  06fc  20                	DEFB +0x20
  4081  06fd  20                	DEFB +0x20
  4082  06fe  20                	DEFB +0x20
  4083  06ff  20                	DEFB +0x20
  4084  0700  20                	DEFB +0x20
  4085  0701  20                	DEFB +0x20
  4086  0702  20                	DEFB +0x20
  4087  0703  20                	DEFB +0x20
  4088  0704  20                	DEFB +0x20
  4089  0705  0b                	DEFB +0x0b
  4090  0706  20                	DEFB +0x20
  4091  0707  20                	DEFB +0x20
  4092  0708  20                	DEFB +0x20
  4093  0709  20                	DEFB +0x20
  4094  070a  20                	DEFB +0x20
  4095  070b  20                	DEFB +0x20
  4096  070c  20                	DEFB +0x20
  4097  070d  0b                	DEFB +0x0b
  4098  070e  0b                	DEFB +0x0b
  4099  070f  20                	DEFB +0x20
  4100  0710  20                	DEFB +0x20
  4101  0711  20                	DEFB +0x20
  4102  0712  20                	DEFB +0x20
  4103  0713  20                	DEFB +0x20
  4104  0714  20                	DEFB +0x20
  4105  0715  20                	DEFB +0x20
  4106  0716  20                	DEFB +0x20
  4107  0717  20                	DEFB +0x20
  4108  0718  20                	DEFB +0x20
  4109  0719  09                	DEFB +0x09
  4110  071a  0a                	DEFB +0x0a
  4111  071b  0a                	DEFB +0x0a
  4112  071c  0a                	DEFB +0x0a
  4113  071d  0a                	DEFB +0x0a
  4114  071e  0a                	DEFB +0x0a
  4115  071f  0a                	DEFB +0x0a
  4116  0720  0a                	DEFB +0x0a
  4117  0721  08                	DEFB +0x08
  4118  0722  0b                	DEFB +0x0b
  4119  0723  20                	DEFB +0x20
  4120  0724  20                	DEFB +0x20
  4121  0725  20                	DEFB +0x20
  4122  0726  20                	DEFB +0x20
  4123  0727  20                	DEFB +0x20
  4124  0728  20                	DEFB +0x20
  4125  0729  20                	DEFB +0x20
  4126  072a  20                	DEFB +0x20
  4127  072b  20                	DEFB +0x20
  4128  072c  20                	DEFB +0x20
  4129  072d  0b                	DEFB +0x0b
  4130  072e  20                	DEFB +0x20
  4131  072f  20                	DEFB +0x20
  4132  0730  20                	DEFB +0x20
  4133  0731  20                	DEFB +0x20
  4134  0732  20                	DEFB +0x20
  4135  0733  20                	DEFB +0x20
  4136  0734  20                	DEFB +0x20
  4137  0735  0b                	DEFB +0x0b
  4138  0736  0b                	DEFB +0x0b
  4139  0737  20                	DEFB +0x20
  4140  0738  20                	DEFB +0x20
  4141  0739  20                	DEFB +0x20
  4142  073a  20                	DEFB +0x20
  4143  073b  20                	DEFB +0x20
  4144  073c  20                	DEFB +0x20
  4145  073d  20                	DEFB +0x20
  4146  073e  20                	DEFB +0x20
  4147  073f  20                	DEFB +0x20
  4148  0740  20                	DEFB +0x20
  4149  0741  0b                	DEFB +0x0b
  4150  0742  20                	DEFB +0x20
  4151  0743  20                	DEFB +0x20
  4152  0744  20                	DEFB +0x20
  4153  0745  20                	DEFB +0x20
  4154  0746  20                	DEFB +0x20
  4155  0747  20                	DEFB +0x20
  4156  0748  20                	DEFB +0x20
  4157  0749  0b                	DEFB +0x0b
  4158  074a  0b                	DEFB +0x0b
  4159  074b  20                	DEFB +0x20
  4160  074c  20                	DEFB +0x20
  4161  074d  20                	DEFB +0x20
  4162  074e  20                	DEFB +0x20
  4163  074f  20                	DEFB +0x20
  4164  0750  20                	DEFB +0x20
  4165  0751  20                	DEFB +0x20
  4166  0752  20                	DEFB +0x20
  4167  0753  20                	DEFB +0x20
  4168  0754  20                	DEFB +0x20
  4169  0755  0b                	DEFB +0x0b
  4170  0756  20                	DEFB +0x20
  4171  0757  20                	DEFB +0x20
  4172  0758  20                	DEFB +0x20
  4173  0759  20                	DEFB +0x20
  4174  075a  20                	DEFB +0x20
  4175  075b  20                	DEFB +0x20
  4176  075c  20                	DEFB +0x20
  4177  075d  0b                	DEFB +0x0b
  4178  075e  0f                	DEFB +0x0f
  4179  075f  0a                	DEFB +0x0a
  4180  0760  0a                	DEFB +0x0a
  4181  0761  0a                	DEFB +0x0a
  4182  0762  0a                	DEFB +0x0a
  4183  0763  0a                	DEFB +0x0a
  4184  0764  0a                	DEFB +0x0a
  4185  0765  0a                	DEFB +0x0a
  4186  0766  0a                	DEFB +0x0a
  4187  0767  0a                	DEFB +0x0a
  4188  0768  0a                	DEFB +0x0a
  4189  0769  07                	DEFB +0x07
  4190  076a  0a                	DEFB +0x0a
  4191  076b  0a                	DEFB +0x0a
  4192  076c  0a                	DEFB +0x0a
  4193  076d  0a                	DEFB +0x0a
  4194  076e  0a                	DEFB +0x0a
  4195  076f  0a                	DEFB +0x0a
  4196  0770  0a                	DEFB +0x0a
  4197  0771  10                	DEFB +0x10
  4198                          	SECTION code_compiler
  4199                          ;	---------------------------------
  4200                          ; Function setupMap
  4201                          ; ---------------------------------
  4202                          _setupMap:
  4203  08a4  010700            	ld	bc,0x0007
  4204  08a7  110000            	ld	de,0x0000
  4205                          l_setupMap_00105:
  4206  08aa  7b                	ld	a, e
  4207  08ab  d6e0              	sub	a,0xe0
  4208  08ad  7a                	ld	a, d
  4209  08ae  17                	rla
  4210  08af  3f                	ccf
  4211  08b0  1f                	rra
  4212  08b1  de81              	sbc	a,0x81
  4213  08b3  301e              	jr	NC,l_setupMap_00103
  4214  08b5  219205            	ld	hl,_MAP
  4215  08b8  19                	add	hl, de
  4216  08b9  7e                	ld	a, (hl)
  4217  08ba  c5                	push	bc
  4218  08bb  d5                	push	de
  4219  08bc  f5                	push	af
  4220  08bd  33                	inc	sp
  4221  08be  c5                	push	bc
  4222  08bf  cd3905            	call	_vdp_setCharAtLocationBuf
  4223  08c2  33                	inc	sp
  4224  08c3  33                	inc	sp
  4225  08c4  33                	inc	sp
  4226  08c5  d1                	pop	de
  4227  08c6  c1                	pop	bc
  4228  08c7  0c                	inc	c
  4229  08c8  3e1a              	ld	a,0x1a
  4230  08ca  91                	sub	a, c
  4231  08cb  3003              	jr	NC,l_setupMap_00106
  4232  08cd  0e07              	ld	c,0x07
  4233  08cf  04                	inc	b
  4234                          l_setupMap_00106:
  4235  08d0  13                	inc	de
  4236  08d1  18d7              	jr	l_setupMap_00105
  4237                          l_setupMap_00103:
  4238  08d3  cd7000            	call	_vdp_waitVDPReadyInt
  4239  08d6  cd5b05            	call	_vdp_refreshViewPort
  4240  08d9  217207            	ld	hl,___str_0
  4241  08dc  e5                	push	hl
  4242  08dd  111301            	ld	de,0x0113
  4243  08e0  d5                	push	de
  4244  08e1  cdd706            	call	_printAtLocationBuf
  4245  08e4  33                	inc	sp
  4246  08e5  33                	inc	sp
  4247  08e6  33                	inc	sp
  4248  08e7  33                	inc	sp
  4249  08e8  217707            	ld	hl,___str_1
  4250  08eb  e5                	push	hl
  4251  08ec  111308            	ld	de,0x0813
  4252  08ef  d5                	push	de
  4253  08f0  cdd706            	call	_printAtLocationBuf
  4254  08f3  33                	inc	sp
  4255  08f4  33                	inc	sp
  4256  08f5  33                	inc	sp
  4257  08f6  33                	inc	sp
  4258  08f7  217d07            	ld	hl,___str_2
  4259  08fa  e5                	push	hl
  4260  08fb  11130c            	ld	de,0x0c13
  4261  08fe  d5                	push	de
  4262  08ff  cdd706            	call	_printAtLocationBuf
  4263  0902  33                	inc	sp
  4264  0903  33                	inc	sp
  4265  0904  33                	inc	sp
  4266  0905  33                	inc	sp
  4267  0906  218507            	ld	hl,___str_3
  4268  0909  e5                	push	hl
  4269  090a  111310            	ld	de,0x1013
  4270  090d  d5                	push	de
  4271  090e  cdd706            	call	_printAtLocationBuf
  4272  0911  33                	inc	sp
  4273  0912  33                	inc	sp
  4274  0913  33                	inc	sp
  4275  0914  33                	inc	sp
  4276  0915  218b07            	ld	hl,___str_4
  4277  0918  e5                	push	hl
  4278  0919  111314            	ld	de,0x1413
  4279  091c  d5                	push	de
  4280  091d  cdd706            	call	_printAtLocationBuf
  4281  0920  33                	inc	sp
  4282  0921  33                	inc	sp
  4283  0922  33                	inc	sp
  4284  0923  33                	inc	sp
  4285  0924  2a1104            	ld	hl, (_high_score)
  4286  0927  e5                	push	hl
  4287  0928  219107            	ld	hl,___str_5
  4288  092b  e5                	push	hl
  4289  092c  215704            	ld	hl,_tb16
  4290  092f  e5                	push	hl
  4291  0930  cd0000            	call	_sprintf
  4292  0933  210600            	ld	hl,6
  4293  0936  39                	add	hl, sp
  4294  0937  f9                	ld	sp, hl
  4295  0938  215704            	ld	hl,_tb16
  4296  093b  e5                	push	hl
  4297  093c  3e0e              	ld	a,0x0e
  4298  093e  57                	ld	d,a
  4299  093f  1e14              	ld	e,0x14
  4300  0941  d5                	push	de
  4301  0942  cdd706            	call	_printAtLocationBuf
  4302  0945  33                	inc	sp
  4303  0946  33                	inc	sp
  4304  0947  33                	inc	sp
  4305  0948  33                	inc	sp
  4306  0949  cd7000            	call	_vdp_waitVDPReadyInt
  4307  094c  c35b05            	jp	_vdp_refreshViewPort
  4308                          	SECTION rodata_compiler
  4309                          ___str_0:
  4310  0772  c7458588          	DEFM "NEXT"
  4311  0776  00                	DEFB 0x00
  4312                          	SECTION rodata_compiler
  4313                          ___str_1:
  4314  0777  80884f5200        	DEFM "SCORE"
  4315  077c  00                	DEFB 0x00
  4316                          	SECTION rodata_compiler
  4317                          ___str_2:
  4318  077d  480701434f5245    	DEFM "H.SCORE"
  4319  0784  00                	DEFB 0x00
  4320                          	SECTION rodata_compiler
  4321                          ___str_3:
  4322  0785  4c494e4553        	DEFM "LINES"
  4323  078a  00                	DEFB 0x00
  4324                          	SECTION rodata_compiler
  4325                          ___str_4:
  4326  078b  4c0156451e        	DEFM "LEVEL"
  4327  0790  00                	DEFB 0x00
  4328                          	SECTION rodata_compiler
  4329                          ___str_5:
  4330  0791  2505              	DEFM "%d"
  4331  0793  00                	DEFB 0x00
  4332                          	SECTION code_compiler
  4333                          ;	---------------------------------
  4334                          ; Function displayTet
  4335                          ; ---------------------------------
  4336                          _displayTet:
  4337  094f  dde5              	push	ix
  4338  0951  dd210000          	ld	ix,0
  4339  0955  dd39              	add	ix,sp
  4340  0957  3b                	dec	sp
  4341  0958  011400            	ld	bc,_tets+0
  4342  095b  dd6e06            	ld	l,(ix+6)
  4343  095e  2600              	ld	h,0x00
  4344  0960  29                	add	hl, hl
  4345  0961  09                	add	hl, bc
  4346  0962  7e                	ld	a, (hl)
  4347  0963  dd8607            	add	a,(ix+7)
  4348  0966  4f                	ld	c, a
  4349  0967  0600              	ld	b,0x00
  4350                          l_displayTet_00109:
  4351  0969  78                	ld	a,b
  4352  096a  fe04              	cp	a,0x04
  4353  096c  3048              	jr	NC,l_displayTet_00111
  4354  096e  dd8605            	add	a,(ix+5)
  4355  0971  5f                	ld	e, a
  4356  0972  1600              	ld	d,0x00
  4357                          l_displayTet_00106:
  4358  0974  7a                	ld	a, d
  4359  0975  d604              	sub	a,0x04
  4360  0977  303a              	jr	NC,l_displayTet_00110
  4361  0979  69                	ld	l, c
  4362  097a  2600              	ld	h,0x00
  4363  097c  29                	add	hl, hl
  4364  097d  29                	add	hl, hl
  4365  097e  29                	add	hl, hl
  4366  097f  29                	add	hl, hl
  4367  0980  d5                	push	de
  4368  0981  110204            	ld	de,_TETRONIMOS
  4369  0984  19                	add	hl, de
  4370  0985  d1                	pop	de
  4371  0986  78                	ld	a, b
  4372  0987  87                	add	a, a
  4373  0988  87                	add	a, a
  4374  0989  dd72ff            	ld	(ix-1),d
  4375  098c  dd86ff            	add	a,(ix-1)
  4376  098f  85                	add	a, l
  4377  0990  6f                	ld	l, a
  4378  0991  3e00              	ld	a,0x00
  4379  0993  8c                	adc	a, h
  4380  0994  67                	ld	h, a
  4381  0995  66                	ld	h, (hl)
  4382  0996  7c                	ld	a, h
  4383  0997  d620              	sub	a,0x20
  4384  0999  2815              	jr	Z,l_displayTet_00107
  4385  099b  7a                	ld	a, d
  4386  099c  dd8604            	add	a,(ix+4)
  4387  099f  c5                	push	bc
  4388  09a0  d5                	push	de
  4389  09a1  e5                	push	hl
  4390  09a2  33                	inc	sp
  4391  09a3  63                	ld	h, e
  4392  09a4  e5                	push	hl
  4393  09a5  33                	inc	sp
  4394  09a6  f5                	push	af
  4395  09a7  33                	inc	sp
  4396  09a8  cd3905            	call	_vdp_setCharAtLocationBuf
  4397  09ab  33                	inc	sp
  4398  09ac  33                	inc	sp
  4399  09ad  33                	inc	sp
  4400  09ae  d1                	pop	de
  4401  09af  c1                	pop	bc
  4402                          l_displayTet_00107:
  4403  09b0  14                	inc	d
  4404  09b1  18c1              	jr	l_displayTet_00106
  4405                          l_displayTet_00110:
  4406  09b3  04                	inc	b
  4407  09b4  18b3              	jr	l_displayTet_00109
  4408                          l_displayTet_00111:
  4409  09b6  33                	inc	sp
  4410  09b7  dde1              	pop	ix
  4411  09b9  c9                	ret
  4412                          	SECTION code_compiler
  4413                          ;	---------------------------------
  4414                          ; Function clearTet
  4415                          ; ---------------------------------
  4416                          _clearTet:
  4417  09ba  dde5              	push	ix
  4418  09bc  dd210000          	ld	ix,0
  4419  09c0  dd39              	add	ix,sp
  4420  09c2  3b                	dec	sp
  4421  09c3  011400            	ld	bc,_tets+0
  4422  09c6  dd6e06            	ld	l,(ix+6)
  4423  09c9  2600              	ld	h,0x00
  4424  09cb  29                	add	hl, hl
  4425  09cc  09                	add	hl, bc
  4426  09cd  7e                	ld	a, (hl)
  4427  09ce  dd8607            	add	a,(ix+7)
  4428  09d1  4f                	ld	c, a
  4429  09d2  1e00              	ld	e,0x00
  4430                          l_clearTet_00109:
  4431  09d4  7b                	ld	a,e
  4432  09d5  fe04              	cp	a,0x04
  4433  09d7  3048              	jr	NC,l_clearTet_00111
  4434  09d9  dd8605            	add	a,(ix+5)
  4435  09dc  47                	ld	b, a
  4436  09dd  1600              	ld	d,0x00
  4437                          l_clearTet_00106:
  4438  09df  7a                	ld	a, d
  4439  09e0  d604              	sub	a,0x04
  4440  09e2  303a              	jr	NC,l_clearTet_00110
  4441  09e4  69                	ld	l, c
  4442  09e5  2600              	ld	h,0x00
  4443  09e7  29                	add	hl, hl
  4444  09e8  29                	add	hl, hl
  4445  09e9  29                	add	hl, hl
  4446  09ea  29                	add	hl, hl
  4447  09eb  d5                	push	de
  4448  09ec  110204            	ld	de,_TETRONIMOS
  4449  09ef  19                	add	hl, de
  4450  09f0  d1                	pop	de
  4451  09f1  7b                	ld	a, e
  4452  09f2  87                	add	a, a
  4453  09f3  87                	add	a, a
  4454  09f4  dd72ff            	ld	(ix-1),d
  4455  09f7  dd86ff            	add	a,(ix-1)
  4456  09fa  85                	add	a, l
  4457  09fb  6f                	ld	l, a
  4458  09fc  3e00              	ld	a,0x00
  4459  09fe  8c                	adc	a, h
  4460  09ff  67                	ld	h, a
  4461  0a00  7e                	ld	a, (hl)
  4462  0a01  d620              	sub	a,0x20
  4463  0a03  2816              	jr	Z,l_clearTet_00107
  4464  0a05  7a                	ld	a, d
  4465  0a06  dd8604            	add	a,(ix+4)
  4466  0a09  c5                	push	bc
  4467  0a0a  d5                	push	de
  4468  0a0b  2620              	ld	h,0x20
  4469  0a0d  e5                	push	hl
  4470  0a0e  33                	inc	sp
  4471  0a0f  c5                	push	bc
  4472  0a10  33                	inc	sp
  4473  0a11  f5                	push	af
  4474  0a12  33                	inc	sp
  4475  0a13  cd3905            	call	_vdp_setCharAtLocationBuf
  4476  0a16  33                	inc	sp
  4477  0a17  33                	inc	sp
  4478  0a18  33                	inc	sp
  4479  0a19  d1                	pop	de
  4480  0a1a  c1                	pop	bc
  4481                          l_clearTet_00107:
  4482  0a1b  14                	inc	d
  4483  0a1c  18c1              	jr	l_clearTet_00106
  4484                          l_clearTet_00110:
  4485  0a1e  1c                	inc	e
  4486  0a1f  18b3              	jr	l_clearTet_00109
  4487                          l_clearTet_00111:
  4488  0a21  33                	inc	sp
  4489  0a22  dde1              	pop	ix
  4490  0a24  c9                	ret
  4491                          	SECTION code_compiler
  4492                          ;	---------------------------------
  4493                          ; Function isSpaceFree
  4494                          ; ---------------------------------
  4495                          _isSpaceFree:
  4496  0a25  dde5              	push	ix
  4497  0a27  dd210000          	ld	ix,0
  4498  0a2b  dd39              	add	ix,sp
  4499  0a2d  3b                	dec	sp
  4500  0a2e  3b                	dec	sp
  4501  0a2f  011400            	ld	bc,_tets+0
  4502  0a32  dd6e06            	ld	l,(ix+6)
  4503  0a35  2600              	ld	h,0x00
  4504  0a37  29                	add	hl, hl
  4505  0a38  09                	add	hl, bc
  4506  0a39  7e                	ld	a, (hl)
  4507  0a3a  dd8607            	add	a,(ix+7)
  4508  0a3d  dd77fe            	ld	(ix-2),a
  4509  0a40  0e00              	ld	c,0x00
  4510                          l_isSpaceFree_00111:
  4511  0a42  79                	ld	a, c
  4512  0a43  d604              	sub	a,0x04
  4513  0a45  3050              	jr	NC,l_isSpaceFree_00106
  4514  0a47  dd7e05            	ld	a,(ix+5)
  4515  0a4a  81                	add	a, c
  4516  0a4b  dd77ff            	ld	(ix-1),a
  4517  0a4e  1e00              	ld	e,0x00
  4518                          l_isSpaceFree_00108:
  4519  0a50  7b                	ld	a, e
  4520  0a51  d604              	sub	a,0x04
  4521  0a53  303f              	jr	NC,l_isSpaceFree_00112
  4522  0a55  dd6efe            	ld	l,(ix-2)
  4523  0a58  2600              	ld	h,0x00
  4524  0a5a  29                	add	hl, hl
  4525  0a5b  29                	add	hl, hl
  4526  0a5c  29                	add	hl, hl
  4527  0a5d  29                	add	hl, hl
  4528  0a5e  d5                	push	de
  4529  0a5f  110204            	ld	de,_TETRONIMOS
  4530  0a62  19                	add	hl, de
  4531  0a63  d1                	pop	de
  4532  0a64  79                	ld	a, c
  4533  0a65  87                	add	a, a
  4534  0a66  87                	add	a, a
  4535  0a67  43                	ld	b, e
  4536  0a68  80                	add	a, b
  4537  0a69  85                	add	a, l
  4538  0a6a  6f                	ld	l, a
  4539  0a6b  3e00              	ld	a,0x00
  4540  0a6d  8c                	adc	a, h
  4541  0a6e  67                	ld	h, a
  4542  0a6f  7e                	ld	a, (hl)
  4543  0a70  d620              	sub	a,0x20
  4544  0a72  281d              	jr	Z,l_isSpaceFree_00109
  4545  0a74  7b                	ld	a, e
  4546  0a75  dd8604            	add	a,(ix+4)
  4547  0a78  c5                	push	bc
  4548  0a79  d5                	push	de
  4549  0a7a  dd66ff            	ld	h,(ix-1)
  4550  0a7d  e5                	push	hl
  4551  0a7e  33                	inc	sp
  4552  0a7f  f5                	push	af
  4553  0a80  33                	inc	sp
  4554  0a81  cd1a05            	call	_vdp_getCharAtLocationBuf
  4555  0a84  33                	inc	sp
  4556  0a85  33                	inc	sp
  4557  0a86  7d                	ld	a, l
  4558  0a87  d1                	pop	de
  4559  0a88  c1                	pop	bc
  4560  0a89  d620              	sub	a,0x20
  4561  0a8b  2804              	jr	Z,l_isSpaceFree_00109
  4562  0a8d  2e00              	ld	l,0x00
  4563  0a8f  1808              	jr	l_isSpaceFree_00113
  4564                          l_isSpaceFree_00109:
  4565  0a91  1c                	inc	e
  4566  0a92  18bc              	jr	l_isSpaceFree_00108
  4567                          l_isSpaceFree_00112:
  4568  0a94  0c                	inc	c
  4569  0a95  18ab              	jr	l_isSpaceFree_00111
  4570                          l_isSpaceFree_00106:
  4571  0a97  2e01              	ld	l,0x01
  4572                          l_isSpaceFree_00113:
  4573  0a99  ddf9              	ld	sp, ix
  4574  0a9b  dde1              	pop	ix
  4575  0a9d  c9                	ret
  4576                          	SECTION code_compiler
  4577                          ;	---------------------------------
  4578                          ; Function clearPlayArea
  4579                          ; ---------------------------------
  4580                          _clearPlayArea:
  4581  0a9e  0e01              	ld	c,0x01
  4582                          l_clearPlayArea_00107:
  4583  0aa0  79                	ld	a, c
  4584  0aa1  d617              	sub	a,0x17
  4585  0aa3  301e              	jr	NC,l_clearPlayArea_00109
  4586  0aa5  0608              	ld	b,0x08
  4587                          l_clearPlayArea_00104:
  4588  0aa7  78                	ld	a, b
  4589  0aa8  d612              	sub	a,0x12
  4590  0aaa  3014              	jr	NC,l_clearPlayArea_00108
  4591  0aac  c5                	push	bc
  4592  0aad  3e20              	ld	a,0x20
  4593  0aaf  f5                	push	af
  4594  0ab0  33                	inc	sp
  4595  0ab1  79                	ld	a, c
  4596  0ab2  f5                	push	af
  4597  0ab3  33                	inc	sp
  4598  0ab4  c5                	push	bc
  4599  0ab5  33                	inc	sp
  4600  0ab6  cd3905            	call	_vdp_setCharAtLocationBuf
  4601  0ab9  33                	inc	sp
  4602  0aba  33                	inc	sp
  4603  0abb  33                	inc	sp
  4604  0abc  c1                	pop	bc
  4605  0abd  04                	inc	b
  4606  0abe  18e7              	jr	l_clearPlayArea_00104
  4607                          l_clearPlayArea_00108:
  4608  0ac0  0c                	inc	c
  4609  0ac1  18dd              	jr	l_clearPlayArea_00107
  4610                          l_clearPlayArea_00109:
  4611  0ac3  c9                	ret
  4612                          	SECTION code_compiler
  4613                          ;	---------------------------------
  4614                          ; Function clearLinesAndDropDown
  4615                          ; ---------------------------------
  4616                          _clearLinesAndDropDown:
  4617  0ac4  2608              	ld	h,0x08
  4618                          l_clearLinesAndDropDown_00106:
  4619  0ac6  7c                	ld	a, h
  4620  0ac7  d612              	sub	a,0x12
  4621  0ac9  3014              	jr	NC,l_clearLinesAndDropDown_00101
  4622  0acb  e5                	push	hl
  4623  0acc  3e20              	ld	a,0x20
  4624  0ace  f5                	push	af
  4625  0acf  33                	inc	sp
  4626  0ad0  7d                	ld	a, l
  4627  0ad1  f5                	push	af
  4628  0ad2  33                	inc	sp
  4629  0ad3  e5                	push	hl
  4630  0ad4  33                	inc	sp
  4631  0ad5  cd3905            	call	_vdp_setCharAtLocationBuf
  4632  0ad8  33                	inc	sp
  4633  0ad9  33                	inc	sp
  4634  0ada  33                	inc	sp
  4635  0adb  e1                	pop	hl
  4636  0adc  24                	inc	h
  4637  0add  18e7              	jr	l_clearLinesAndDropDown_00106
  4638                          l_clearLinesAndDropDown_00101:
  4639                          l_clearLinesAndDropDown_00112:
  4640  0adf  3e01              	ld	a,0x01
  4641  0ae1  95                	sub	a, l
  4642  0ae2  302a              	jr	NC,l_clearLinesAndDropDown_00103
  4643  0ae4  2608              	ld	h,0x08
  4644                          l_clearLinesAndDropDown_00109:
  4645  0ae6  7c                	ld	a, h
  4646  0ae7  d612              	sub	a,0x12
  4647  0ae9  3020              	jr	NC,l_clearLinesAndDropDown_00113
  4648  0aeb  7d                	ld	a, l
  4649  0aec  3d                	dec	a
  4650  0aed  e5                	push	hl
  4651  0aee  f5                	push	af
  4652  0aef  33                	inc	sp
  4653  0af0  e5                	push	hl
  4654  0af1  33                	inc	sp
  4655  0af2  cd1a05            	call	_vdp_getCharAtLocationBuf
  4656  0af5  33                	inc	sp
  4657  0af6  33                	inc	sp
  4658  0af7  7d                	ld	a, l
  4659  0af8  e1                	pop	hl
  4660  0af9  e5                	push	hl
  4661  0afa  f5                	push	af
  4662  0afb  33                	inc	sp
  4663  0afc  7d                	ld	a, l
  4664  0afd  f5                	push	af
  4665  0afe  33                	inc	sp
  4666  0aff  e5                	push	hl
  4667  0b00  33                	inc	sp
  4668  0b01  cd3905            	call	_vdp_setCharAtLocationBuf
  4669  0b04  33                	inc	sp
  4670  0b05  33                	inc	sp
  4671  0b06  33                	inc	sp
  4672  0b07  e1                	pop	hl
  4673  0b08  24                	inc	h
  4674  0b09  18db              	jr	l_clearLinesAndDropDown_00109
  4675                          l_clearLinesAndDropDown_00113:
  4676  0b0b  2d                	dec	l
  4677  0b0c  18d1              	jr	l_clearLinesAndDropDown_00112
  4678                          l_clearLinesAndDropDown_00103:
  4679  0b0e  0608              	ld	b,0x08
  4680                          l_clearLinesAndDropDown_00115:
  4681  0b10  78                	ld	a, b
  4682  0b11  d612              	sub	a,0x12
  4683  0b13  d0                	ret	NC
  4684  0b14  c5                	push	bc
  4685  0b15  3e20              	ld	a,0x20
  4686  0b17  f5                	push	af
  4687  0b18  33                	inc	sp
  4688  0b19  c5                	push	bc
  4689  0b1a  33                	inc	sp
  4690  0b1b  3e01              	ld	a,0x01
  4691  0b1d  f5                	push	af
  4692  0b1e  33                	inc	sp
  4693  0b1f  cd3905            	call	_vdp_setCharAtLocationBuf
  4694  0b22  33                	inc	sp
  4695  0b23  33                	inc	sp
  4696  0b24  33                	inc	sp
  4697  0b25  c1                	pop	bc
  4698  0b26  04                	inc	b
  4699  0b27  18e7              	jr	l_clearLinesAndDropDown_00115
  4700                          	SECTION code_compiler
  4701                          ;	---------------------------------
  4702                          ; Function checkCompletedLines
  4703                          ; ---------------------------------
  4704                          _checkCompletedLines:
  4705  0b29  eb                	ex	de, hl
  4706  0b2a  010001            	ld	bc,0x0100
  4707                          l_checkCompletedLines_00113:
  4708  0b2d  78                	ld	a, b
  4709  0b2e  d617              	sub	a,0x17
  4710  0b30  3034              	jr	NC,l_checkCompletedLines_00108
  4711  0b32  210108            	ld	hl,0x0801
  4712                          l_checkCompletedLines_00110:
  4713  0b35  7c                	ld	a, h
  4714  0b36  d612              	sub	a,0x12
  4715  0b38  301a              	jr	NC,l_checkCompletedLines_00103
  4716  0b3a  e5                	push	hl
  4717  0b3b  c5                	push	bc
  4718  0b3c  d5                	push	de
  4719  0b3d  c5                	push	bc
  4720  0b3e  33                	inc	sp
  4721  0b3f  e5                	push	hl
  4722  0b40  33                	inc	sp
  4723  0b41  cd1a05            	call	_vdp_getCharAtLocationBuf
  4724  0b44  33                	inc	sp
  4725  0b45  33                	inc	sp
  4726  0b46  7d                	ld	a, l
  4727  0b47  d1                	pop	de
  4728  0b48  c1                	pop	bc
  4729  0b49  e1                	pop	hl
  4730  0b4a  d620              	sub	a,0x20
  4731  0b4c  2003              	jr	NZ,l_checkCompletedLines_00111
  4732  0b4e  6f                	ld	l,a
  4733  0b4f  1803              	jr	l_checkCompletedLines_00103
  4734                          l_checkCompletedLines_00111:
  4735  0b51  24                	inc	h
  4736  0b52  18e1              	jr	l_checkCompletedLines_00110
  4737                          l_checkCompletedLines_00103:
  4738  0b54  7d                	ld	a, l
  4739  0b55  b7                	or	a, a
  4740  0b56  280b              	jr	Z,l_checkCompletedLines_00114
  4741  0b58  69                	ld	l, c
  4742  0b59  2600              	ld	h,0x00
  4743  0b5b  19                	add	hl, de
  4744  0b5c  70                	ld	(hl), b
  4745  0b5d  0c                	inc	c
  4746  0b5e  79                	ld	a, c
  4747  0b5f  d604              	sub	a,0x04
  4748  0b61  2803              	jr	Z,l_checkCompletedLines_00108
  4749                          l_checkCompletedLines_00114:
  4750  0b63  04                	inc	b
  4751  0b64  18c7              	jr	l_checkCompletedLines_00113
  4752                          l_checkCompletedLines_00108:
  4753  0b66  69                	ld	l, c
  4754  0b67  c9                	ret
  4755                          	SECTION code_compiler
  4756                          ;	---------------------------------
  4757                          ; Function new_block
  4758                          ; ---------------------------------
  4759                          _new_block:
  4760  0b68  3a0c00            	ld	a, (_block_count+0)
  4761  0b6b  d607              	sub	a,0x07
  4762  0b6d  2016              	jr	NZ,l_new_block_00117
  4763  0b6f  4f                	ld	c,a
  4764                          l_new_block_00110:
  4765  0b70  79                	ld	a, c
  4766  0b71  d607              	sub	a,0x07
  4767  0b73  300b              	jr	NC,l_new_block_00101
  4768  0b75  210d00            	ld	hl,_used_blocks
  4769  0b78  0600              	ld	b,0x00
  4770  0b7a  09                	add	hl, bc
  4771  0b7b  3600              	ld	(hl),0x00
  4772  0b7d  0c                	inc	c
  4773  0b7e  18f0              	jr	l_new_block_00110
  4774                          l_new_block_00101:
  4775  0b80  210c00            	ld	hl,_block_count + 0
  4776  0b83  3600              	ld	(hl),0x00
  4777                          l_new_block_00117:
  4778                          l_new_block_00107:
  4779  0b85  cd0000            	call	_rand
  4780  0b88  110700            	ld	de,0x0007
  4781  0b8b  d5                	push	de
  4782  0b8c  e5                	push	hl
  4783  0b8d  cd0000            	call	__modsint
  4784  0b90  33                	inc	sp
  4785  0b91  33                	inc	sp
  4786  0b92  33                	inc	sp
  4787  0b93  33                	inc	sp
  4788  0b94  eb                	ex	de, hl
  4789  0b95  7b                	ld	a, e
  4790  0b96  c60d              	add	a, +((_used_blocks) & 0xFF)
  4791  0b98  4f                	ld	c, a
  4792  0b99  3e00              	ld	a,0x00
  4793  0b9b  ce00              	adc	a, +((_used_blocks) / 256)
  4794  0b9d  47                	ld	b, a
  4795  0b9e  0a                	ld	a, (bc)
  4796  0b9f  b7                	or	a, a
  4797  0ba0  20e3              	jr	NZ,l_new_block_00107
  4798  0ba2  fd210c00          	ld	iy,_block_count
  4799  0ba6  fd3400            	inc	(iy+0)
  4800  0ba9  3e01              	ld	a,0x01
  4801  0bab  02                	ld	(bc), a
  4802  0bac  1600              	ld	d,0x00
  4803  0bae  eb                	ex	de, hl
  4804  0baf  c9                	ret
  4805                          	SECTION code_compiler
  4806                          ;	---------------------------------
  4807                          ; Function play
  4808                          ; ---------------------------------
  4809                          _play:
  4810  0bb0  dde5              	push	ix
  4811  0bb2  dd210000          	ld	ix,0
  4812  0bb6  dd39              	add	ix,sp
  4813  0bb8  21eaff            	ld	hl, -22
  4814  0bbb  39                	add	hl, sp
  4815  0bbc  f9                	ld	sp, hl
  4816  0bbd  cd680b            	call	_new_block
  4817  0bc0  dd75ee            	ld	(ix-18),l
  4818  0bc3  dd36ef01          	ld	(ix-17),0x01
  4819  0bc7  af                	xor	a, a
  4820  0bc8  dd77f0            	ld	(ix-16),a
  4821  0bcb  dd77f1            	ld	(ix-15),a
  4822  0bce  dd36f21e          	ld	(ix-14),0x1e
  4823  0bd2  af                	xor	a, a
  4824  0bd3  dd77f3            	ld	(ix-13),a
  4825  0bd6  af                	xor	a, a
  4826  0bd7  dd77fa            	ld	(ix-6),a
  4827  0bda  dd77fb            	ld	(ix-5),a
  4828  0bdd  dd36f401          	ld	(ix-12),0x01
  4829  0be1  dd36fc00          	ld	(ix-4),0x00
  4830  0be5  dd36f500          	ld	(ix-11),0x00
  4831  0be9  210000            	ld	hl,0x0000
  4832  0bec  e5                	push	hl
  4833  0bed  219407            	ld	hl,___str_6
  4834  0bf0  e5                	push	hl
  4835  0bf1  215304            	ld	hl,_tb8
  4836  0bf4  e5                	push	hl
  4837  0bf5  cd0000            	call	_sprintf
  4838  0bf8  210600            	ld	hl,6
  4839  0bfb  39                	add	hl, sp
  4840  0bfc  f9                	ld	sp, hl
  4841  0bfd  215304            	ld	hl,_tb8
  4842  0c00  e5                	push	hl
  4843  0c01  111412            	ld	de,0x1214
  4844  0c04  d5                	push	de
  4845  0c05  cdd706            	call	_printAtLocationBuf
  4846  0c08  33                	inc	sp
  4847  0c09  33                	inc	sp
  4848  0c0a  33                	inc	sp
  4849  0c0b  33                	inc	sp
  4850  0c0c  210000            	ld	hl,0x0000
  4851  0c0f  e5                	push	hl
  4852  0c10  219407            	ld	hl,___str_6
  4853  0c13  e5                	push	hl
  4854  0c14  215704            	ld	hl,_tb16
  4855  0c17  e5                	push	hl
  4856  0c18  cd0000            	call	_sprintf
  4857  0c1b  210600            	ld	hl,6
  4858  0c1e  39                	add	hl, sp
  4859  0c1f  f9                	ld	sp, hl
  4860  0c20  215704            	ld	hl,_tb16
  4861  0c23  e5                	push	hl
  4862  0c24  11140a            	ld	de,0x0a14
  4863  0c27  d5                	push	de
  4864  0c28  cdd706            	call	_printAtLocationBuf
  4865  0c2b  33                	inc	sp
  4866  0c2c  33                	inc	sp
  4867  0c2d  33                	inc	sp
  4868  0c2e  33                	inc	sp
  4869  0c2f  2a1104            	ld	hl, (_high_score)
  4870  0c32  e5                	push	hl
  4871  0c33  219407            	ld	hl,___str_6
  4872  0c36  e5                	push	hl
  4873  0c37  215704            	ld	hl,_tb16
  4874  0c3a  e5                	push	hl
  4875  0c3b  cd0000            	call	_sprintf
  4876  0c3e  210600            	ld	hl,6
  4877  0c41  39                	add	hl, sp
  4878  0c42  f9                	ld	sp, hl
  4879  0c43  215704            	ld	hl,_tb16
  4880  0c46  e5                	push	hl
  4881  0c47  11140e            	ld	de,0x0e14
  4882  0c4a  d5                	push	de
  4883  0c4b  cdd706            	call	_printAtLocationBuf
  4884  0c4e  33                	inc	sp
  4885  0c4f  33                	inc	sp
  4886  0c50  33                	inc	sp
  4887  0c51  33                	inc	sp
  4888  0c52  210100            	ld	hl,0x0001
  4889  0c55  e5                	push	hl
  4890  0c56  219407            	ld	hl,___str_6
  4891  0c59  e5                	push	hl
  4892  0c5a  215304            	ld	hl,_tb8
  4893  0c5d  e5                	push	hl
  4894  0c5e  cd0000            	call	_sprintf
  4895  0c61  210600            	ld	hl,6
  4896  0c64  39                	add	hl, sp
  4897  0c65  f9                	ld	sp, hl
  4898  0c66  215304            	ld	hl,_tb8
  4899  0c69  e5                	push	hl
  4900  0c6a  111415            	ld	de,0x1514
  4901  0c6d  d5                	push	de
  4902  0c6e  cdd706            	call	_printAtLocationBuf
  4903  0c71  33                	inc	sp
  4904  0c72  33                	inc	sp
  4905  0c73  33                	inc	sp
  4906  0c74  33                	inc	sp
  4907                          l_play_00172:
  4908  0c75  dd7eef            	ld	a,(ix-17)
  4909  0c78  b7                	or	a, a
  4910  0c79  ca9711            	jp	Z, l_play_00174
  4911  0c7c  cd680b            	call	_new_block
  4912  0c7f  dd75f6            	ld	(ix-10),l
  4913  0c82  dd36fd00          	ld	(ix-3),0x00
  4914  0c86  dd36fe0a          	ld	(ix-2),0x0a
  4915  0c8a  dd36f701          	ld	(ix-9),0x01
  4916  0c8e  af                	xor	a, a
  4917  0c8f  f5                	push	af
  4918  0c90  33                	inc	sp
  4919  0c91  dd56f6            	ld	d,(ix-10)
  4920  0c94  1e03              	ld	e,0x03
  4921  0c96  d5                	push	de
  4922  0c97  3e15              	ld	a,0x15
  4923  0c99  f5                	push	af
  4924  0c9a  33                	inc	sp
  4925  0c9b  cd4f09            	call	_displayTet
  4926  0c9e  33                	inc	sp
  4927  0c9f  33                	inc	sp
  4928  0ca0  33                	inc	sp
  4929  0ca1  33                	inc	sp
  4930  0ca2  af                	xor	a, a
  4931  0ca3  f5                	push	af
  4932  0ca4  33                	inc	sp
  4933  0ca5  dd56ee            	ld	d,(ix-18)
  4934  0ca8  1e01              	ld	e,0x01
  4935  0caa  d5                	push	de
  4936  0cab  3e0a              	ld	a,0x0a
  4937  0cad  f5                	push	af
  4938  0cae  33                	inc	sp
  4939  0caf  cd4f09            	call	_displayTet
  4940  0cb2  33                	inc	sp
  4941  0cb3  33                	inc	sp
  4942  0cb4  33                	inc	sp
  4943  0cb5  33                	inc	sp
  4944  0cb6  dd4ef0            	ld	c,(ix-16)
  4945  0cb9  dd46f1            	ld	b,(ix-15)
  4946  0cbc  dd36ff01          	ld	(ix-1),0x01
  4947                          l_play_00150:
  4948  0cc0  c5                	push	bc
  4949  0cc1  cd7000            	call	_vdp_waitVDPReadyInt
  4950  0cc4  cd5b05            	call	_vdp_refreshViewPort
  4951  0cc7  c1                	pop	bc
  4952  0cc8  03                	inc	bc
  4953  0cc9  dd71f0            	ld	(ix-16),c
  4954  0ccc  dd70f1            	ld	(ix-15),b
  4955  0ccf  c5                	push	bc
  4956  0cd0  cd2d00            	call	_isKeyPressed
  4957  0cd3  dd75f9            	ld	(ix-7),l
  4958  0cd6  c1                	pop	bc
  4959  0cd7  dd7ef9            	ld	a,(ix-7)
  4960  0cda  b7                	or	a, a
  4961  0cdb  ca500f            	jp	Z, l_play_00139
  4962  0cde  c5                	push	bc
  4963  0cdf  cd4000            	call	_getChar
  4964  0ce2  5d                	ld	e, l
  4965  0ce3  c1                	pop	bc
  4966  0ce4  7b                	ld	a, e
  4967  0ce5  d62c              	sub	a,0x2c
  4968  0ce7  2070              	jr	NZ,l_play_00136
  4969  0ce9  c5                	push	bc
  4970  0cea  dd66fd            	ld	h,(ix-3)
  4971  0ced  dd6eee            	ld	l,(ix-18)
  4972  0cf0  e5                	push	hl
  4973  0cf1  dd66ff            	ld	h,(ix-1)
  4974  0cf4  dd6efe            	ld	l,(ix-2)
  4975  0cf7  e5                	push	hl
  4976  0cf8  cdba09            	call	_clearTet
  4977  0cfb  33                	inc	sp
  4978  0cfc  33                	inc	sp
  4979  0cfd  33                	inc	sp
  4980  0cfe  33                	inc	sp
  4981  0cff  c1                	pop	bc
  4982  0d00  dd7efe            	ld	a,(ix-2)
  4983  0d03  3d                	dec	a
  4984  0d04  c5                	push	bc
  4985  0d05  dd66fd            	ld	h,(ix-3)
  4986  0d08  e5                	push	hl
  4987  0d09  33                	inc	sp
  4988  0d0a  dd66ee            	ld	h,(ix-18)
  4989  0d0d  e5                	push	hl
  4990  0d0e  33                	inc	sp
  4991  0d0f  dd66ff            	ld	h,(ix-1)
  4992  0d12  e5                	push	hl
  4993  0d13  33                	inc	sp
  4994  0d14  f5                	push	af
  4995  0d15  33                	inc	sp
  4996  0d16  cd250a            	call	_isSpaceFree
  4997  0d19  33                	inc	sp
  4998  0d1a  33                	inc	sp
  4999  0d1b  33                	inc	sp
  5000  0d1c  33                	inc	sp
  5001  0d1d  7d                	ld	a, l
  5002  0d1e  c1                	pop	bc
  5003  0d1f  b7                	or	a, a
  5004  0d20  281d              	jr	Z,l_play_00102
  5005  0d22  dd35fe            	dec	(ix-2)
  5006  0d25  c5                	push	bc
  5007  0d26  dd66fd            	ld	h,(ix-3)
  5008  0d29  dd6eee            	ld	l,(ix-18)
  5009  0d2c  e5                	push	hl
  5010  0d2d  dd66ff            	ld	h,(ix-1)
  5011  0d30  dd6efe            	ld	l,(ix-2)
  5012  0d33  e5                	push	hl
  5013  0d34  cd4f09            	call	_displayTet
  5014  0d37  33                	inc	sp
  5015  0d38  33                	inc	sp
  5016  0d39  33                	inc	sp
  5017  0d3a  33                	inc	sp
  5018  0d3b  c1                	pop	bc
  5019  0d3c  c3500f            	jp	l_play_00139
  5020                          l_play_00102:
  5021  0d3f  c5                	push	bc
  5022  0d40  dd66fd            	ld	h,(ix-3)
  5023  0d43  dd6eee            	ld	l,(ix-18)
  5024  0d46  e5                	push	hl
  5025  0d47  dd66ff            	ld	h,(ix-1)
  5026  0d4a  dd6efe            	ld	l,(ix-2)
  5027  0d4d  e5                	push	hl
  5028  0d4e  cd4f09            	call	_displayTet
  5029  0d51  33                	inc	sp
  5030  0d52  33                	inc	sp
  5031  0d53  33                	inc	sp
  5032  0d54  33                	inc	sp
  5033  0d55  c1                	pop	bc
  5034  0d56  c3500f            	jp	l_play_00139
  5035                          l_play_00136:
  5036  0d59  7b                	ld	a, e
  5037  0d5a  d62e              	sub	a,0x2e
  5038  0d5c  2070              	jr	NZ,l_play_00133
  5039  0d5e  c5                	push	bc
  5040  0d5f  dd66fd            	ld	h,(ix-3)
  5041  0d62  dd6eee            	ld	l,(ix-18)
  5042  0d65  e5                	push	hl
  5043  0d66  dd66ff            	ld	h,(ix-1)
  5044  0d69  dd6efe            	ld	l,(ix-2)
  5045  0d6c  e5                	push	hl
  5046  0d6d  cdba09            	call	_clearTet
  5047  0d70  33                	inc	sp
  5048  0d71  33                	inc	sp
  5049  0d72  33                	inc	sp
  5050  0d73  33                	inc	sp
  5051  0d74  c1                	pop	bc
  5052  0d75  dd7efe            	ld	a,(ix-2)
  5053  0d78  3c                	inc	a
  5054  0d79  c5                	push	bc
  5055  0d7a  dd66fd            	ld	h,(ix-3)
  5056  0d7d  e5                	push	hl
  5057  0d7e  33                	inc	sp
  5058  0d7f  dd66ee            	ld	h,(ix-18)
  5059  0d82  e5                	push	hl
  5060  0d83  33                	inc	sp
  5061  0d84  dd66ff            	ld	h,(ix-1)
  5062  0d87  e5                	push	hl
  5063  0d88  33                	inc	sp
  5064  0d89  f5                	push	af
  5065  0d8a  33                	inc	sp
  5066  0d8b  cd250a            	call	_isSpaceFree
  5067  0d8e  33                	inc	sp
  5068  0d8f  33                	inc	sp
  5069  0d90  33                	inc	sp
  5070  0d91  33                	inc	sp
  5071  0d92  7d                	ld	a, l
  5072  0d93  c1                	pop	bc
  5073  0d94  b7                	or	a, a
  5074  0d95  281d              	jr	Z,l_play_00105
  5075  0d97  dd34fe            	inc	(ix-2)
  5076  0d9a  c5                	push	bc
  5077  0d9b  dd66fd            	ld	h,(ix-3)
  5078  0d9e  dd6eee            	ld	l,(ix-18)
  5079  0da1  e5                	push	hl
  5080  0da2  dd66ff            	ld	h,(ix-1)
  5081  0da5  dd6efe            	ld	l,(ix-2)
  5082  0da8  e5                	push	hl
  5083  0da9  cd4f09            	call	_displayTet
  5084  0dac  33                	inc	sp
  5085  0dad  33                	inc	sp
  5086  0dae  33                	inc	sp
  5087  0daf  33                	inc	sp
  5088  0db0  c1                	pop	bc
  5089  0db1  c3500f            	jp	l_play_00139
  5090                          l_play_00105:
  5091  0db4  c5                	push	bc
  5092  0db5  dd66fd            	ld	h,(ix-3)
  5093  0db8  dd6eee            	ld	l,(ix-18)
  5094  0dbb  e5                	push	hl
  5095  0dbc  dd66ff            	ld	h,(ix-1)
  5096  0dbf  dd6efe            	ld	l,(ix-2)
  5097  0dc2  e5                	push	hl
  5098  0dc3  cd4f09            	call	_displayTet
  5099  0dc6  33                	inc	sp
  5100  0dc7  33                	inc	sp
  5101  0dc8  33                	inc	sp
  5102  0dc9  33                	inc	sp
  5103  0dca  c1                	pop	bc
  5104  0dcb  c3500f            	jp	l_play_00139
  5105                          l_play_00133:
  5106  0dce  7b                	ld	a, e
  5107  0dcf  d67a              	sub	a,0x7a
  5108  0dd1  c27d0e            	jp	NZ,l_play_00130
  5109  0dd4  c5                	push	bc
  5110  0dd5  dd66fd            	ld	h,(ix-3)
  5111  0dd8  dd6eee            	ld	l,(ix-18)
  5112  0ddb  e5                	push	hl
  5113  0ddc  dd66ff            	ld	h,(ix-1)
  5114  0ddf  dd6efe            	ld	l,(ix-2)
  5115  0de2  e5                	push	hl
  5116  0de3  cdba09            	call	_clearTet
  5117  0de6  33                	inc	sp
  5118  0de7  33                	inc	sp
  5119  0de8  33                	inc	sp
  5120  0de9  33                	inc	sp
  5121  0dea  c1                	pop	bc
  5122  0deb  dd35fd            	dec	(ix-3)
  5123  0dee  ddcbfd7e          	bit	7,(ix-3)
  5124  0df2  2811              	jr	Z,l_play_00108
  5125  0df4  dd6eee            	ld	l,(ix-18)
  5126  0df7  2600              	ld	h,0x00
  5127  0df9  29                	add	hl, hl
  5128  0dfa  111400            	ld	de,_tets
  5129  0dfd  19                	add	hl, de
  5130  0dfe  23                	inc	hl
  5131  0dff  7e                	ld	a, (hl)
  5132  0e00  c6ff              	add	a,0xff
  5133  0e02  dd77fd            	ld	(ix-3),a
  5134                          l_play_00108:
  5135  0e05  c5                	push	bc
  5136  0e06  dd66fd            	ld	h,(ix-3)
  5137  0e09  dd6eee            	ld	l,(ix-18)
  5138  0e0c  e5                	push	hl
  5139  0e0d  dd66ff            	ld	h,(ix-1)
  5140  0e10  dd6efe            	ld	l,(ix-2)
  5141  0e13  e5                	push	hl
  5142  0e14  cd250a            	call	_isSpaceFree
  5143  0e17  33                	inc	sp
  5144  0e18  33                	inc	sp
  5145  0e19  33                	inc	sp
  5146  0e1a  33                	inc	sp
  5147  0e1b  7d                	ld	a, l
  5148  0e1c  c1                	pop	bc
  5149  0e1d  b7                	or	a, a
  5150  0e1e  281a              	jr	Z,l_play_00112
  5151  0e20  c5                	push	bc
  5152  0e21  dd66fd            	ld	h,(ix-3)
  5153  0e24  dd6eee            	ld	l,(ix-18)
  5154  0e27  e5                	push	hl
  5155  0e28  dd66ff            	ld	h,(ix-1)
  5156  0e2b  dd6efe            	ld	l,(ix-2)
  5157  0e2e  e5                	push	hl
  5158  0e2f  cd4f09            	call	_displayTet
  5159  0e32  33                	inc	sp
  5160  0e33  33                	inc	sp
  5161  0e34  33                	inc	sp
  5162  0e35  33                	inc	sp
  5163  0e36  c1                	pop	bc
  5164  0e37  c3500f            	jp	l_play_00139
  5165                          l_play_00112:
  5166  0e3a  dd34fd            	inc	(ix-3)
  5167  0e3d  dd6eee            	ld	l,(ix-18)
  5168  0e40  2600              	ld	h,0x00
  5169  0e42  29                	add	hl, hl
  5170  0e43  111400            	ld	de,_tets
  5171  0e46  19                	add	hl, de
  5172  0e47  23                	inc	hl
  5173  0e48  5e                	ld	e, (hl)
  5174  0e49  1600              	ld	d,0x00
  5175  0e4b  1b                	dec	de
  5176  0e4c  dd7efd            	ld	a,(ix-3)
  5177  0e4f  6f                	ld	l, a
  5178  0e50  07                	rlca
  5179  0e51  9f                	sbc	a, a
  5180  0e52  67                	ld	h, a
  5181  0e53  7b                	ld	a, e
  5182  0e54  95                	sub	a, l
  5183  0e55  7a                	ld	a, d
  5184  0e56  9c                	sbc	a, h
  5185  0e57  e25c0e            	jp	PO, l_play_00368
  5186  0e5a  ee80              	xor	a,0x80
  5187                          l_play_00368:
  5188  0e5c  f2630e            	jp	P, l_play_00110
  5189  0e5f  dd36fd00          	ld	(ix-3),0x00
  5190                          l_play_00110:
  5191  0e63  c5                	push	bc
  5192  0e64  dd66fd            	ld	h,(ix-3)
  5193  0e67  dd6eee            	ld	l,(ix-18)
  5194  0e6a  e5                	push	hl
  5195  0e6b  dd66ff            	ld	h,(ix-1)
  5196  0e6e  dd6efe            	ld	l,(ix-2)
  5197  0e71  e5                	push	hl
  5198  0e72  cd4f09            	call	_displayTet
  5199  0e75  33                	inc	sp
  5200  0e76  33                	inc	sp
  5201  0e77  33                	inc	sp
  5202  0e78  33                	inc	sp
  5203  0e79  c1                	pop	bc
  5204  0e7a  c3500f            	jp	l_play_00139
  5205                          l_play_00130:
  5206  0e7d  7b                	ld	a, e
  5207  0e7e  d678              	sub	a,0x78
  5208  0e80  c2290f            	jp	NZ,l_play_00127
  5209  0e83  c5                	push	bc
  5210  0e84  dd66fd            	ld	h,(ix-3)
  5211  0e87  dd6eee            	ld	l,(ix-18)
  5212  0e8a  e5                	push	hl
  5213  0e8b  dd66ff            	ld	h,(ix-1)
  5214  0e8e  dd6efe            	ld	l,(ix-2)
  5215  0e91  e5                	push	hl
  5216  0e92  cdba09            	call	_clearTet
  5217  0e95  33                	inc	sp
  5218  0e96  33                	inc	sp
  5219  0e97  33                	inc	sp
  5220  0e98  33                	inc	sp
  5221  0e99  c1                	pop	bc
  5222  0e9a  dd34fd            	inc	(ix-3)
  5223  0e9d  dd6eee            	ld	l,(ix-18)
  5224  0ea0  2600              	ld	h,0x00
  5225  0ea2  29                	add	hl, hl
  5226  0ea3  111400            	ld	de,_tets
  5227  0ea6  19                	add	hl, de
  5228  0ea7  23                	inc	hl
  5229  0ea8  5e                	ld	e, (hl)
  5230  0ea9  1600              	ld	d,0x00
  5231  0eab  1b                	dec	de
  5232  0eac  dd7efd            	ld	a,(ix-3)
  5233  0eaf  dd77f8            	ld	(ix-8),a
  5234  0eb2  07                	rlca
  5235  0eb3  9f                	sbc	a, a
  5236  0eb4  dd77f9            	ld	(ix-7),a
  5237  0eb7  7b                	ld	a, e
  5238  0eb8  dd96f8            	sub	a,(ix-8)
  5239  0ebb  7a                	ld	a, d
  5240  0ebc  dd9ef9            	sbc	a,(ix-7)
  5241  0ebf  e2c40e            	jp	PO, l_play_00371
  5242  0ec2  ee80              	xor	a,0x80
  5243                          l_play_00371:
  5244  0ec4  f2cb0e            	jp	P, l_play_00115
  5245  0ec7  dd36fd00          	ld	(ix-3),0x00
  5246                          l_play_00115:
  5247  0ecb  e5                	push	hl
  5248  0ecc  c5                	push	bc
  5249  0ecd  dd66fd            	ld	h,(ix-3)
  5250  0ed0  dd6eee            	ld	l,(ix-18)
  5251  0ed3  e5                	push	hl
  5252  0ed4  dd66ff            	ld	h,(ix-1)
  5253  0ed7  dd6efe            	ld	l,(ix-2)
  5254  0eda  e5                	push	hl
  5255  0edb  cd250a            	call	_isSpaceFree
  5256  0ede  33                	inc	sp
  5257  0edf  33                	inc	sp
  5258  0ee0  33                	inc	sp
  5259  0ee1  33                	inc	sp
  5260  0ee2  7d                	ld	a, l
  5261  0ee3  c1                	pop	bc
  5262  0ee4  e1                	pop	hl
  5263  0ee5  b7                	or	a, a
  5264  0ee6  2819              	jr	Z,l_play_00119
  5265  0ee8  c5                	push	bc
  5266  0ee9  dd66fd            	ld	h,(ix-3)
  5267  0eec  dd6eee            	ld	l,(ix-18)
  5268  0eef  e5                	push	hl
  5269  0ef0  dd66ff            	ld	h,(ix-1)
  5270  0ef3  dd6efe            	ld	l,(ix-2)
  5271  0ef6  e5                	push	hl
  5272  0ef7  cd4f09            	call	_displayTet
  5273  0efa  33                	inc	sp
  5274  0efb  33                	inc	sp
  5275  0efc  33                	inc	sp
  5276  0efd  33                	inc	sp
  5277  0efe  c1                	pop	bc
  5278  0eff  184f              	jr	l_play_00139
  5279                          l_play_00119:
  5280  0f01  dd35fd            	dec	(ix-3)
  5281  0f04  ddcbfd7e          	bit	7,(ix-3)
  5282  0f08  2806              	jr	Z,l_play_00117
  5283  0f0a  7e                	ld	a, (hl)
  5284  0f0b  c6ff              	add	a,0xff
  5285  0f0d  dd77fd            	ld	(ix-3),a
  5286                          l_play_00117:
  5287  0f10  c5                	push	bc
  5288  0f11  dd66fd            	ld	h,(ix-3)
  5289  0f14  dd6eee            	ld	l,(ix-18)
  5290  0f17  e5                	push	hl
  5291  0f18  dd66ff            	ld	h,(ix-1)
  5292  0f1b  dd6efe            	ld	l,(ix-2)
  5293  0f1e  e5                	push	hl
  5294  0f1f  cd4f09            	call	_displayTet
  5295  0f22  33                	inc	sp
  5296  0f23  33                	inc	sp
  5297  0f24  33                	inc	sp
  5298  0f25  33                	inc	sp
  5299  0f26  c1                	pop	bc
  5300  0f27  1827              	jr	l_play_00139
  5301                          l_play_00127:
  5302  0f29  7b                	ld	a, e
  5303  0f2a  d620              	sub	a,0x20
  5304  0f2c  2016              	jr	NZ,l_play_00124
  5305  0f2e  dd36f201          	ld	(ix-14),0x01
  5306  0f32  af                	xor	a, a
  5307  0f33  dd77f3            	ld	(ix-13),a
  5308  0f36  dd36f501          	ld	(ix-11),0x01
  5309  0f3a  dd34fa            	inc	(ix-6)
  5310  0f3d  2011              	jr	NZ,l_play_00139
  5311  0f3f  dd34fb            	inc	(ix-5)
  5312  0f42  180c              	jr	l_play_00139
  5313                          l_play_00124:
  5314  0f44  7b                	ld	a, e
  5315  0f45  d61b              	sub	a,0x1b
  5316  0f47  2007              	jr	NZ,l_play_00139
  5317  0f49  dd36ef00          	ld	(ix-17),0x00
  5318  0f4d  c3ef0f            	jp	l_play_00151
  5319                          l_play_00139:
  5320  0f50  c5                	push	bc
  5321  0f51  dd6ef2            	ld	l,(ix-14)
  5322  0f54  dd66f3            	ld	h,(ix-13)
  5323  0f57  e5                	push	hl
  5324  0f58  c5                	push	bc
  5325  0f59  cd0000            	call	__moduint
  5326  0f5c  33                	inc	sp
  5327  0f5d  33                	inc	sp
  5328  0f5e  33                	inc	sp
  5329  0f5f  33                	inc	sp
  5330  0f60  c1                	pop	bc
  5331  0f61  7c                	ld	a, h
  5332  0f62  b5                	or	a, l
  5333  0f63  c2c00c            	jp	NZ, l_play_00150
  5334  0f66  c5                	push	bc
  5335  0f67  dd66fd            	ld	h,(ix-3)
  5336  0f6a  dd6eee            	ld	l,(ix-18)
  5337  0f6d  e5                	push	hl
  5338  0f6e  dd66ff            	ld	h,(ix-1)
  5339  0f71  dd6efe            	ld	l,(ix-2)
  5340  0f74  e5                	push	hl
  5341  0f75  cdba09            	call	_clearTet
  5342  0f78  33                	inc	sp
  5343  0f79  33                	inc	sp
  5344  0f7a  33                	inc	sp
  5345  0f7b  33                	inc	sp
  5346  0f7c  c1                	pop	bc
  5347  0f7d  dd7eff            	ld	a,(ix-1)
  5348  0f80  3c                	inc	a
  5349  0f81  c5                	push	bc
  5350  0f82  dd66fd            	ld	h,(ix-3)
  5351  0f85  e5                	push	hl
  5352  0f86  33                	inc	sp
  5353  0f87  dd66ee            	ld	h,(ix-18)
  5354  0f8a  e5                	push	hl
  5355  0f8b  33                	inc	sp
  5356  0f8c  f5                	push	af
  5357  0f8d  33                	inc	sp
  5358  0f8e  dd7efe            	ld	a,(ix-2)
  5359  0f91  f5                	push	af
  5360  0f92  33                	inc	sp
  5361  0f93  cd250a            	call	_isSpaceFree
  5362  0f96  33                	inc	sp
  5363  0f97  33                	inc	sp
  5364  0f98  33                	inc	sp
  5365  0f99  33                	inc	sp
  5366  0f9a  7d                	ld	a, l
  5367  0f9b  c1                	pop	bc
  5368  0f9c  b7                	or	a, a
  5369  0f9d  2831              	jr	Z,l_play_00145
  5370  0f9f  dd34ff            	inc	(ix-1)
  5371  0fa2  dd7eff            	ld	a,(ix-1)
  5372  0fa5  dd77f7            	ld	(ix-9),a
  5373  0fa8  dd7ef5            	ld	a,(ix-11)
  5374  0fab  b7                	or	a, a
  5375  0fac  2808              	jr	Z,l_play_00141
  5376  0fae  dd34fa            	inc	(ix-6)
  5377  0fb1  2003              	jr	NZ,l_play_00377
  5378  0fb3  dd34fb            	inc	(ix-5)
  5379                          l_play_00377:
  5380                          l_play_00141:
  5381  0fb6  c5                	push	bc
  5382  0fb7  dd66fd            	ld	h,(ix-3)
  5383  0fba  dd6eee            	ld	l,(ix-18)
  5384  0fbd  e5                	push	hl
  5385  0fbe  dd66ff            	ld	h,(ix-1)
  5386  0fc1  dd6efe            	ld	l,(ix-2)
  5387  0fc4  e5                	push	hl
  5388  0fc5  cd4f09            	call	_displayTet
  5389  0fc8  33                	inc	sp
  5390  0fc9  33                	inc	sp
  5391  0fca  33                	inc	sp
  5392  0fcb  33                	inc	sp
  5393  0fcc  c1                	pop	bc
  5394  0fcd  c3c00c            	jp	l_play_00150
  5395                          l_play_00145:
  5396  0fd0  dd66fd            	ld	h,(ix-3)
  5397  0fd3  dd6eee            	ld	l,(ix-18)
  5398  0fd6  e5                	push	hl
  5399  0fd7  dd66f7            	ld	h,(ix-9)
  5400  0fda  dd6efe            	ld	l,(ix-2)
  5401  0fdd  e5                	push	hl
  5402  0fde  cd4f09            	call	_displayTet
  5403  0fe1  33                	inc	sp
  5404  0fe2  33                	inc	sp
  5405  0fe3  33                	inc	sp
  5406  0fe4  33                	inc	sp
  5407  0fe5  dd7ef7            	ld	a,(ix-9)
  5408  0fe8  3d                	dec	a
  5409  0fe9  2004              	jr	NZ,l_play_00151
  5410  0feb  dd36ef00          	ld	(ix-17),0x00
  5411                          l_play_00151:
  5412  0fef  210000            	ld	hl,0
  5413  0ff2  39                	add	hl, sp
  5414  0ff3  cd290b            	call	_checkCompletedLines
  5415  0ff6  dd75f9            	ld	(ix-7),l
  5416  0ff9  7d                	ld	a, l
  5417  0ffa  b7                	or	a, a
  5418  0ffb  ca4d11            	jp	Z, l_play_00169
  5419  0ffe  dd36ff00          	ld	(ix-1),0x00
  5420                          l_play_00181:
  5421  1002  dd7eff            	ld	a,(ix-1)
  5422  1005  dd96f9            	sub	a,(ix-7)
  5423  1008  3037              	jr	NC,l_play_00154
  5424  100a  dd5eff            	ld	e,(ix-1)
  5425  100d  1600              	ld	d,0x00
  5426  100f  210000            	ld	hl,0
  5427  1012  39                	add	hl, sp
  5428  1013  19                	add	hl, de
  5429  1014  dd75fd            	ld	(ix-3),l
  5430  1017  dd74fe            	ld	(ix-2),h
  5431  101a  dd6efd            	ld	l,(ix-3)
  5432  101d  dd66fe            	ld	h,(ix-2)
  5433  1020  6e                	ld	l, (hl)
  5434  1021  cdc40a            	call	_clearLinesAndDropDown
  5435  1024  dd34fc            	inc	(ix-4)
  5436  1027  dd7efc            	ld	a,(ix-4)
  5437  102a  d60a              	sub	a,0x0a
  5438  102c  200e              	jr	NZ,l_play_00182
  5439  102e  dd7ef4            	ld	a,(ix-12)
  5440  1031  dd77fe            	ld	(ix-2),a
  5441  1034  3c                	inc	a
  5442  1035  dd77f4            	ld	(ix-12),a
  5443  1038  dd36fc00          	ld	(ix-4),0x00
  5444                          l_play_00182:
  5445  103c  dd34ff            	inc	(ix-1)
  5446  103f  18c1              	jr	l_play_00181
  5447                          l_play_00154:
  5448  1041  dd7ef9            	ld	a,(ix-7)
  5449  1044  3d                	dec	a
  5450  1045  200f              	jr	NZ,l_play_00164
  5451  1047  dd7efa            	ld	a,(ix-6)
  5452  104a  c628              	add	a,0x28
  5453  104c  dd77fa            	ld	(ix-6),a
  5454  104f  304b              	jr	NC,l_play_00165
  5455  1051  dd34fb            	inc	(ix-5)
  5456  1054  1846              	jr	l_play_00165
  5457                          l_play_00164:
  5458  1056  dd7ef9            	ld	a,(ix-7)
  5459  1059  d602              	sub	a,0x02
  5460  105b  200f              	jr	NZ,l_play_00161
  5461  105d  dd7efa            	ld	a,(ix-6)
  5462  1060  c664              	add	a,0x64
  5463  1062  dd77fa            	ld	(ix-6),a
  5464  1065  3035              	jr	NC,l_play_00165
  5465  1067  dd34fb            	inc	(ix-5)
  5466  106a  1830              	jr	l_play_00165
  5467                          l_play_00161:
  5468  106c  dd7ef9            	ld	a,(ix-7)
  5469  106f  d603              	sub	a,0x03
  5470  1071  2012              	jr	NZ,l_play_00158
  5471  1073  dd7efa            	ld	a,(ix-6)
  5472  1076  c62c              	add	a,0x2c
  5473  1078  dd77fa            	ld	(ix-6),a
  5474  107b  dd7efb            	ld	a,(ix-5)
  5475  107e  ce01              	adc	a,0x01
  5476  1080  dd77fb            	ld	(ix-5),a
  5477  1083  1817              	jr	l_play_00165
  5478                          l_play_00158:
  5479  1085  dd7ef9            	ld	a,(ix-7)
  5480  1088  d604              	sub	a,0x04
  5481  108a  2010              	jr	NZ,l_play_00165
  5482  108c  dd7efa            	ld	a,(ix-6)
  5483  108f  c6b0              	add	a,0xb0
  5484  1091  dd77fa            	ld	(ix-6),a
  5485  1094  dd7efb            	ld	a,(ix-5)
  5486  1097  ce04              	adc	a,0x04
  5487  1099  dd77fb            	ld	(ix-5),a
  5488                          l_play_00165:
  5489  109c  3a1104            	ld	a, (_high_score+0)
  5490  109f  dd96fa            	sub	a,(ix-6)
  5491  10a2  3a1204            	ld	a, (_high_score+1)
  5492  10a5  dd9efb            	sbc	a,(ix-5)
  5493  10a8  3009              	jr	NC,l_play_00167
  5494  10aa  dd6efa            	ld	l,(ix-6)
  5495  10ad  dd66fb            	ld	h,(ix-5)
  5496  10b0  221104            	ld	(_high_score), hl
  5497                          l_play_00167:
  5498  10b3  dd6efa            	ld	l,(ix-6)
  5499  10b6  dd66fb            	ld	h,(ix-5)
  5500  10b9  e5                	push	hl
  5501  10ba  219407            	ld	hl,___str_6
  5502  10bd  e5                	push	hl
  5503  10be  215704            	ld	hl,_tb16
  5504  10c1  e5                	push	hl
  5505  10c2  cd0000            	call	_sprintf
  5506  10c5  210600            	ld	hl,6
  5507  10c8  39                	add	hl, sp
  5508  10c9  f9                	ld	sp, hl
  5509  10ca  215704            	ld	hl,_tb16
  5510  10cd  e5                	push	hl
  5511  10ce  11140a            	ld	de,0x0a14
  5512  10d1  d5                	push	de
  5513  10d2  cdd706            	call	_printAtLocationBuf
  5514  10d5  33                	inc	sp
  5515  10d6  33                	inc	sp
  5516  10d7  33                	inc	sp
  5517  10d8  33                	inc	sp
  5518  10d9  2a1104            	ld	hl, (_high_score)
  5519  10dc  e5                	push	hl
  5520  10dd  219407            	ld	hl,___str_6
  5521  10e0  e5                	push	hl
  5522  10e1  215704            	ld	hl,_tb16
  5523  10e4  e5                	push	hl
  5524  10e5  cd0000            	call	_sprintf
  5525  10e8  210600            	ld	hl,6
  5526  10eb  39                	add	hl, sp
  5527  10ec  f9                	ld	sp, hl
  5528  10ed  215704            	ld	hl,_tb16
  5529  10f0  e5                	push	hl
  5530  10f1  11140e            	ld	de,0x0e14
  5531  10f4  d5                	push	de
  5532  10f5  cdd706            	call	_printAtLocationBuf
  5533  10f8  33                	inc	sp
  5534  10f9  33                	inc	sp
  5535  10fa  33                	inc	sp
  5536  10fb  33                	inc	sp
  5537  10fc  dd4efc            	ld	c,(ix-4)
  5538  10ff  0600              	ld	b,0x00
  5539  1101  c5                	push	bc
  5540  1102  219407            	ld	hl,___str_6
  5541  1105  e5                	push	hl
  5542  1106  215304            	ld	hl,_tb8
  5543  1109  e5                	push	hl
  5544  110a  cd0000            	call	_sprintf
  5545  110d  210600            	ld	hl,6
  5546  1110  39                	add	hl, sp
  5547  1111  f9                	ld	sp, hl
  5548  1112  215304            	ld	hl,_tb8
  5549  1115  e5                	push	hl
  5550  1116  111412            	ld	de,0x1214
  5551  1119  d5                	push	de
  5552  111a  cdd706            	call	_printAtLocationBuf
  5553  111d  33                	inc	sp
  5554  111e  33                	inc	sp
  5555  111f  33                	inc	sp
  5556  1120  33                	inc	sp
  5557  1121  dd4ef4            	ld	c,(ix-12)
  5558  1124  0600              	ld	b,0x00
  5559  1126  c5                	push	bc
  5560  1127  219407            	ld	hl,___str_6
  5561  112a  e5                	push	hl
  5562  112b  215304            	ld	hl,_tb8
  5563  112e  e5                	push	hl
  5564  112f  cd0000            	call	_sprintf
  5565  1132  210600            	ld	hl,6
  5566  1135  39                	add	hl, sp
  5567  1136  f9                	ld	sp, hl
  5568  1137  215304            	ld	hl,_tb8
  5569  113a  e5                	push	hl
  5570  113b  3e15              	ld	a,0x15
  5571  113d  57                	ld	d,a
  5572  113e  1e14              	ld	e,0x14
  5573  1140  d5                	push	de
  5574  1141  cdd706            	call	_printAtLocationBuf
  5575  1144  33                	inc	sp
  5576  1145  33                	inc	sp
  5577  1146  33                	inc	sp
  5578  1147  33                	inc	sp
  5579  1148  cd7000            	call	_vdp_waitVDPReadyInt
  5580  114b  db81              	in	a, (_IO_VDPLATCH)
  5581                          l_play_00169:
  5582  114d  af                	xor	a, a
  5583  114e  f5                	push	af
  5584  114f  33                	inc	sp
  5585  1150  dd56f6            	ld	d,(ix-10)
  5586  1153  1e03              	ld	e,0x03
  5587  1155  d5                	push	de
  5588  1156  3e15              	ld	a,0x15
  5589  1158  f5                	push	af
  5590  1159  33                	inc	sp
  5591  115a  cdba09            	call	_clearTet
  5592  115d  33                	inc	sp
  5593  115e  33                	inc	sp
  5594  115f  33                	inc	sp
  5595  1160  33                	inc	sp
  5596  1161  dd7ef6            	ld	a,(ix-10)
  5597  1164  dd77ee            	ld	(ix-18),a
  5598  1167  dd4ef4            	ld	c,(ix-12)
  5599  116a  0600              	ld	b,0x00
  5600  116c  69                	ld	l, c
  5601  116d  60                	ld	h, b
  5602  116e  29                	add	hl, hl
  5603  116f  09                	add	hl, bc
  5604  1170  3e1e              	ld	a,0x1e
  5605  1172  95                	sub	a, l
  5606  1173  dd77f2            	ld	(ix-14),a
  5607  1176  9f                	sbc	a, a
  5608  1177  94                	sub	a, h
  5609  1178  dd77f3            	ld	(ix-13),a
  5610  117b  dd36f500          	ld	(ix-11),0x00
  5611  117f  dd7ef2            	ld	a,(ix-14)
  5612  1182  d601              	sub	a,0x01
  5613  1184  dd7ef3            	ld	a,(ix-13)
  5614  1187  de00              	sbc	a,0x00
  5615  1189  d2750c            	jp	NC, l_play_00172
  5616  118c  dd36f201          	ld	(ix-14),0x01
  5617  1190  af                	xor	a, a
  5618  1191  dd77f3            	ld	(ix-13),a
  5619  1194  c3750c            	jp	l_play_00172
  5620                          l_play_00174:
  5621  1197  3a1104            	ld	a, (_high_score+0)
  5622  119a  dd96fa            	sub	a,(ix-6)
  5623  119d  3a1204            	ld	a, (_high_score+1)
  5624  11a0  dd9efb            	sbc	a,(ix-5)
  5625  11a3  3009              	jr	NC,l_play_00176
  5626  11a5  dd6efa            	ld	l,(ix-6)
  5627  11a8  dd66fb            	ld	h,(ix-5)
  5628  11ab  221104            	ld	(_high_score), hl
  5629                          l_play_00176:
  5630  11ae  dd6efa            	ld	l,(ix-6)
  5631  11b1  dd66fb            	ld	h,(ix-5)
  5632  11b4  e5                	push	hl
  5633  11b5  219407            	ld	hl,___str_6
  5634  11b8  e5                	push	hl
  5635  11b9  215704            	ld	hl,_tb16
  5636  11bc  e5                	push	hl
  5637  11bd  cd0000            	call	_sprintf
  5638  11c0  210600            	ld	hl,6
  5639  11c3  39                	add	hl, sp
  5640  11c4  f9                	ld	sp, hl
  5641  11c5  215704            	ld	hl,_tb16
  5642  11c8  e5                	push	hl
  5643  11c9  11140a            	ld	de,0x0a14
  5644  11cc  d5                	push	de
  5645  11cd  cdd706            	call	_printAtLocationBuf
  5646  11d0  33                	inc	sp
  5647  11d1  33                	inc	sp
  5648  11d2  33                	inc	sp
  5649  11d3  33                	inc	sp
  5650  11d4  2a1104            	ld	hl, (_high_score)
  5651  11d7  e5                	push	hl
  5652  11d8  219407            	ld	hl,___str_6
  5653  11db  e5                	push	hl
  5654  11dc  215704            	ld	hl,_tb16
  5655  11df  e5                	push	hl
  5656  11e0  cd0000            	call	_sprintf
  5657  11e3  210600            	ld	hl,6
  5658  11e6  39                	add	hl, sp
  5659  11e7  f9                	ld	sp, hl
  5660  11e8  215704            	ld	hl,_tb16
  5661  11eb  e5                	push	hl
  5662  11ec  11140e            	ld	de,0x0e14
  5663  11ef  d5                	push	de
  5664  11f0  cdd706            	call	_printAtLocationBuf
  5665  11f3  33                	inc	sp
  5666  11f4  33                	inc	sp
  5667  11f5  33                	inc	sp
  5668  11f6  33                	inc	sp
  5669  11f7  010000            	ld	bc,0x0000
  5670                          l_play_00177:
  5671  11fa  79                	ld	a, c
  5672  11fb  d6b4              	sub	a,0xb4
  5673  11fd  78                	ld	a, b
  5674  11fe  de00              	sbc	a,0x00
  5675  1200  3008              	jr	NC,l_play_00183
  5676  1202  c5                	push	bc
  5677  1203  cd7000            	call	_vdp_waitVDPReadyInt
  5678  1206  c1                	pop	bc
  5679  1207  03                	inc	bc
  5680  1208  18f0              	jr	l_play_00177
  5681                          l_play_00183:
  5682  120a  ddf9              	ld	sp, ix
  5683  120c  dde1              	pop	ix
  5684  120e  c9                	ret
  5685                          	SECTION rodata_compiler
  5686                          ___str_6:
  5687  0794  2564              	DEFM "%d"
  5688  0796  00                	DEFB 0x00
  5689                          	SECTION code_compiler
  5690                          ;	---------------------------------
  5691                          ; Function menu
  5692                          ; ---------------------------------
  5693                          _menu:
  5694  120f  cd9e0a            	call	_clearPlayArea
  5695  1212  cd7000            	call	_vdp_waitVDPReadyInt
  5696  1215  cd5b05            	call	_vdp_refreshViewPort
  5697  1218  219707            	ld	hl,___str_7
  5698  121b  e5                	push	hl
  5699  121c  110903            	ld	de,0x0309
  5700  121f  d5                	push	de
  5701  1220  cdd706            	call	_printAtLocationBuf
  5702  1223  33                	inc	sp
  5703  1224  33                	inc	sp
  5704  1225  33                	inc	sp
  5705  1226  33                	inc	sp
  5706  1227  21a107            	ld	hl,___str_8
  5707  122a  e5                	push	hl
  5708  122b  110904            	ld	de,0x0409
  5709  122e  d5                	push	de
  5710  122f  cdd706            	call	_printAtLocationBuf
  5711  1232  33                	inc	sp
  5712  1233  33                	inc	sp
  5713  1234  33                	inc	sp
  5714  1235  33                	inc	sp
  5715  1236  21aa07            	ld	hl,___str_9
  5716  1239  e5                	push	hl
  5717  123a  110807            	ld	de,0x0708
  5718  123d  d5                	push	de
  5719  123e  cdd706            	call	_printAtLocationBuf
  5720  1241  33                	inc	sp
  5721  1242  33                	inc	sp
  5722  1243  33                	inc	sp
  5723  1244  33                	inc	sp
  5724  1245  21b507            	ld	hl,___str_10
  5725  1248  e5                	push	hl
  5726  1249  110808            	ld	de,0x0808
  5727  124c  d5                	push	de
  5728  124d  cdd706            	call	_printAtLocationBuf
  5729  1250  33                	inc	sp
  5730  1251  33                	inc	sp
  5731  1252  33                	inc	sp
  5732  1253  33                	inc	sp
  5733  1254  21c007            	ld	hl,___str_11
  5734  1257  e5                	push	hl
  5735  1258  110909            	ld	de,0x0909
  5736  125b  d5                	push	de
  5737  125c  cdd706            	call	_printAtLocationBuf
  5738  125f  33                	inc	sp
  5739  1260  33                	inc	sp
  5740  1261  33                	inc	sp
  5741  1262  33                	inc	sp
  5742  1263  21ca07            	ld	hl,___str_12
  5743  1266  e5                	push	hl
  5744  1267  11080a            	ld	de,0x0a08
  5745  126a  d5                	push	de
  5746  126b  cdd706            	call	_printAtLocationBuf
  5747  126e  33                	inc	sp
  5748  126f  33                	inc	sp
  5749  1270  33                	inc	sp
  5750  1271  33                	inc	sp
  5751  1272  21d507            	ld	hl,___str_13
  5752  1275  e5                	push	hl
  5753  1276  11090e            	ld	de,0x0e09
  5754  1279  d5                	push	de
  5755  127a  cdd706            	call	_printAtLocationBuf
  5756  127d  33                	inc	sp
  5757  127e  33                	inc	sp
  5758  127f  33                	inc	sp
  5759  1280  33                	inc	sp
  5760  1281  21df07            	ld	hl,___str_14
  5761  1284  e5                	push	hl
  5762  1285  110911            	ld	de,0x1109
  5763  1288  d5                	push	de
  5764  1289  cdd706            	call	_printAtLocationBuf
  5765  128c  33                	inc	sp
  5766  128d  33                	inc	sp
  5767  128e  33                	inc	sp
  5768  128f  33                	inc	sp
  5769  1290  21e807            	ld	hl,___str_15
  5770  1293  e5                	push	hl
  5771  1294  110813            	ld	de,0x1308
  5772  1297  d5                	push	de
  5773  1298  cdd706            	call	_printAtLocationBuf
  5774  129b  33                	inc	sp
  5775  129c  33                	inc	sp
  5776  129d  33                	inc	sp
  5777  129e  33                	inc	sp
  5778  129f  21f307            	ld	hl,___str_16
  5779  12a2  e5                	push	hl
  5780  12a3  110b14            	ld	de,0x140b
  5781  12a6  d5                	push	de
  5782  12a7  cdd706            	call	_printAtLocationBuf
  5783  12aa  33                	inc	sp
  5784  12ab  33                	inc	sp
  5785  12ac  33                	inc	sp
  5786  12ad  33                	inc	sp
  5787  12ae  21f807            	ld	hl,___str_17
  5788  12b1  e5                	push	hl
  5789  12b2  110b15            	ld	de,0x150b
  5790  12b5  d5                	push	de
  5791  12b6  cdd706            	call	_printAtLocationBuf
  5792  12b9  33                	inc	sp
  5793  12ba  33                	inc	sp
  5794  12bb  33                	inc	sp
  5795  12bc  33                	inc	sp
  5796  12bd  cd7000            	call	_vdp_waitVDPReadyInt
  5797  12c0  cd5b05            	call	_vdp_refreshViewPort
  5798                          l_menu_00107:
  5799  12c3  cd2d00            	call	_isKeyPressed
  5800  12c6  7d                	ld	a, l
  5801  12c7  b7                	or	a, a
  5802  12c8  28f9              	jr	Z,l_menu_00107
  5803  12ca  cd4000            	call	_getChar
  5804  12cd  7d                	ld	a, l
  5805  12ce  d61b              	sub	a,0x1b
  5806  12d0  2003              	jr	NZ,l_menu_00102
  5807  12d2  6f                	ld	l,a
  5808  12d3  1802              	jr	l_menu_00109
  5809                          l_menu_00102:
  5810  12d5  2e01              	ld	l,0x01
  5811                          l_menu_00109:
  5812  12d7  c9                	ret
  5813                          	SECTION rodata_compiler
  5814                          ___str_7:
  5815  0797  3003455302004b45  	DEFM "PRESS KEY"
              62                
  5816  07a0  00                	DEFB 0x00
  5817                          	SECTION rodata_compiler
  5818                          ___str_8:
  5819  07a1  544f205354415254  	DEFM "TO START"
  5820  07a9  00                	DEFB 0x00
  5821                          	SECTION rodata_compiler
  5822                          ___str_9:
  5823  07aa  af063c2941204c5c  	DEFM ",(<)  LEFT"
              4611              
  5824  07b4  00                	DEFB 0x00
  5825                          	SECTION rodata_compiler
  5826                          ___str_10:
  5827  07b5  2e030129205249c8  	DEFM ".(>) RIGHT"
              0254              
  5828  07bf  00                	DEFB 0x00
  5829                          	SECTION rodata_compiler
  5830                          ___str_11:
  5831  07c0  58202620ea20304f  	DEFM "X & Z ROT"
              54                
  5832  07c9  00                	DEFB 0x00
  5833                          	SECTION rodata_compiler
  5834                          ___str_12:
  5835  07ca  5311414306014452  	DEFM "SPACE DROP"
              4f50              
  5836  07d4  00                	DEFB 0x00
  5837                          	SECTION rodata_compiler
  5838                          ___str_13:
  5839  07d5  024f574e204452ea  	DEFM "DOWN DROP"
              50                
  5840  07de  00                	DEFB 0x00
  5841                          	SECTION rodata_compiler
  5842                          ___str_14:
  5843  07df  452f432011554903  	DEFM "ESC QUIT"
  5844  07e7  00                	DEFB 0x00
  5845                          	SECTION rodata_compiler
  5846                          ___str_15:
  5847  07e8  50524f44c8025449  	DEFM "PRODUCTION"
              4f4e              
  5848  07f2  00                	DEFB 0x00
  5849                          	SECTION rodata_compiler
  5850                          ___str_16:
  5851  07f3  44ea563a          	DEFM "DAVE"
  5852  07f7  00                	DEFB 0x00
  5853                          	SECTION rodata_compiler
  5854                          ___str_17:
  5855  07f8  404f5511454103    	DEFM "NOUVEAU"
  5856  07ff  00                	DEFB 0x00
  5857                          	SECTION code_compiler
  5858                          ;	---------------------------------
  5859                          ; Function main
  5860                          ; ---------------------------------
  5861                          _main:
  5862  12d8  cd7a07            	call	_initDisplay
  5863  12db  cda408            	call	_setupMap
  5864                          l_main_00101:
  5865  12de  cd0f12            	call	_menu
  5866  12e1  7d                	ld	a, l
  5867  12e2  b7                	or	a, a
  5868  12e3  ca0000            	jp	Z,0
  5869  12e6  cda408            	call	_setupMap
  5870  12e9  cdb00b            	call	_play
  5871  12ec  18f0              	jr	l_main_00101
  5872  12ee  c30000            	jp	0
  5873  12f1  c9                	ret
  5874                          	SECTION data_compiler
  5875                          __randomSeed:
  5876  0000  00                	DEFB +0x00
  5877                          __kbdBufferReadPos:
  5878  0001  00                	DEFB +0x00
  5879                          __kbdBufferWritePos:
  5880  0002  00                	DEFB +0x00
  5881                          __lastKeyboardIntVal:
  5882  0003  00                	DEFB +0x00
  5883                          __joyStatus:
  5884  0004  00                	DEFB +0x00
  5885  0005  00                	DEFB 0x00
  5886  0006  00                	DEFB 0x00
  5887  0007  00                	DEFB 0x00
  5888                          _vdp_cursor:
  5889  0008  00                	DEFB +0x00
  5890  0009  00                	DEFB +0x00
  5891                          __vdpReg1Val:
  5892  000a  00                	DEFB +0x00
  5893                          __vdpInterruptEnabled:
  5894  000b  00                	DEFB +0x00
  5895                          _block_count:
  5896  000c  00                	DEFB +0x00
  5897                          _used_blocks:
  5898  000d  00                	DEFB +0x00
  5899  000e  00                	DEFB +0x00
  5900  000f  00                	DEFB +0x00
  5901  0010  00                	DEFB +0x00
  5902  0011  00                	DEFB +0x00
  5903  0012  00                	DEFB +0x00
  5904  0013  00                	DEFB +0x00
  5905                          _tets:
  5906  0014  00                	DEFB +0x00
  5907  0015  01                	DEFB +0x01
  5908  0016  01                	DEFB +0x01
  5909  0017  04                	DEFB +0x04
  5910  0018  05                	DEFB +0x05
  5911  0019  04                	DEFB +0x04
  5912  001a  09                	DEFB +0x09
  5913  001b  04                	DEFB +0x04
  5914  001c  0d                	DEFB +0x0d
  5915  001d  04                	DEFB +0x04
  5916  001e  11                	DEFB +0x11
  5917  001f  04                	DEFB +0x04
  5918  0020  15                	DEFB +0x15
  5919  0021  04                	DEFB +0x04
  5920                          	SECTION IGNORE
  5921                          
